

Microchip MPLAB XC8 Assembler V2.10 build 88905656 
                                                                                               Sun Sep 15 15:04:10 2019

Microchip MPLAB XC8 C Compiler v2.10 (Free license) build 20190730164152 Og1 
     1                           	processor	16F1776
     2                           	opt	pw 120
     3                           	opt	flic
     4                           	psect	cinit,global,class=CODE,merge=1,delta=2
     5                           	psect	cstackCOMMON,global,class=COMMON,space=1,delta=1
     6                           	psect	maintext,global,class=CODE,merge=1,split=1,delta=2
     7                           	psect	text1,local,class=CODE,merge=1,delta=2
     8                           	psect	text2,local,class=CODE,merge=1,delta=2
     9                           	psect	text3,local,class=CODE,merge=1,delta=2
    10                           	psect	text4,local,class=CODE,merge=1,delta=2
    11                           	psect	intentry,global,class=CODE,delta=2
    12                           	dabs	1,0x7E,2
    13  0000                     
    14                           ; Version 2.10
    15                           ; Generated 31/07/2019 GMT
    16                           ; 
    17                           ; Copyright © 2019, Microchip Technology Inc. and its subsidiaries ("Microchip")
    18                           ; All rights reserved.
    19                           ; 
    20                           ; This software is developed by Microchip Technology Inc. and its subsidiaries ("Microch
      +                          ip").
    21                           ; 
    22                           ; Redistribution and use in source and binary forms, with or without modification, are
    23                           ; permitted provided that the following conditions are met:
    24                           ; 
    25                           ;     1. Redistributions of source code must retain the above copyright notice, this lis
      +                          t of
    26                           ;        conditions and the following disclaimer.
    27                           ; 
    28                           ;     2. Redistributions in binary form must reproduce the above copyright notice, this 
      +                          list
    29                           ;        of conditions and the following disclaimer in the documentation and/or other
    30                           ;        materials provided with the distribution.
    31                           ; 
    32                           ;     3. Microchip's name may not be used to endorse or promote products derived from th
      +                          is
    33                           ;        software without specific prior written permission.
    34                           ; 
    35                           ; THIS SOFTWARE IS PROVIDED BY MICROCHIP "AS IS" AND ANY EXPRESS OR IMPLIED WARRANTIES,
    36                           ; INCLUDING, BUT NOT LIMITED TO, THE IMPLIED WARRANTIES OF MERCHANTABILITY AND FITNESS F
      +                          OR
    37                           ; PURPOSE ARE DISCLAIMED.  IN NO EVENT SHALL MICROCHIP BE LIABLE FOR ANY DIRECT, INDIREC
      +                          T,
    38                           ; INCIDENTAL, SPECIAL, EXEMPLARY, OR CONSEQUENTIAL DAMAGES (INCLUDING BUT NOT LIMITED TO
    39                           ; PROCUREMENT OF SUBSTITUTE GOODS OR SERVICES; LOSS OF USE, DATA OR PROFITS; OR BUSINESS
    40                           ; INTERRUPTION) HOWSOEVER CAUSED AND ON ANY THEORY OF LIABILITY, WHETHER IN CONTRACT, ST
      +                          RICT
    41                           ; LIABILITY, OR TORT (INCLUDING NEGLIGENCE OR OTHERWISE) ARISING IN ANY WAY OUT OF THE U
      +                          SE OF
    42                           ; THIS SOFTWARE, EVEN IF ADVISED OF THE POSSIBILITY OF SUCH DAMAGE.
    43                           ; 
    44                           ; 
    45                           ; Code-generator required, PIC16F1776 Definitions
    46                           ; 
    47                           ; SFR Addresses
    48  0000                     	;# 
    49  0001                     	;# 
    50  0002                     	;# 
    51  0003                     	;# 
    52  0004                     	;# 
    53  0005                     	;# 
    54  0006                     	;# 
    55  0007                     	;# 
    56  0008                     	;# 
    57  0009                     	;# 
    58  000A                     	;# 
    59  000B                     	;# 
    60  000C                     	;# 
    61  000D                     	;# 
    62  000E                     	;# 
    63  0010                     	;# 
    64  0011                     	;# 
    65  0012                     	;# 
    66  0013                     	;# 
    67  0014                     	;# 
    68  0015                     	;# 
    69  0016                     	;# 
    70  0017                     	;# 
    71  0018                     	;# 
    72  0018                     	;# 
    73  0019                     	;# 
    74  001A                     	;# 
    75  001B                     	;# 
    76  001C                     	;# 
    77  001C                     	;# 
    78  001D                     	;# 
    79  001E                     	;# 
    80  001F                     	;# 
    81  008C                     	;# 
    82  008D                     	;# 
    83  008E                     	;# 
    84  0090                     	;# 
    85  0091                     	;# 
    86  0092                     	;# 
    87  0093                     	;# 
    88  0094                     	;# 
    89  0095                     	;# 
    90  0096                     	;# 
    91  0097                     	;# 
    92  0098                     	;# 
    93  0099                     	;# 
    94  009A                     	;# 
    95  009B                     	;# 
    96  009C                     	;# 
    97  009D                     	;# 
    98  009E                     	;# 
    99  009F                     	;# 
   100  010C                     	;# 
   101  010D                     	;# 
   102  010E                     	;# 
   103  0111                     	;# 
   104  0112                     	;# 
   105  0113                     	;# 
   106  0114                     	;# 
   107  0115                     	;# 
   108  0116                     	;# 
   109  0117                     	;# 
   110  0118                     	;# 
   111  0119                     	;# 
   112  011A                     	;# 
   113  011B                     	;# 
   114  011C                     	;# 
   115  011D                     	;# 
   116  018C                     	;# 
   117  018D                     	;# 
   118  018E                     	;# 
   119  0191                     	;# 
   120  0191                     	;# 
   121  0192                     	;# 
   122  0193                     	;# 
   123  0193                     	;# 
   124  0194                     	;# 
   125  0195                     	;# 
   126  0196                     	;# 
   127  0197                     	;# 
   128  0199                     	;# 
   129  0199                     	;# 
   130  0199                     	;# 
   131  019A                     	;# 
   132  019A                     	;# 
   133  019A                     	;# 
   134  019B                     	;# 
   135  019B                     	;# 
   136  019B                     	;# 
   137  019B                     	;# 
   138  019B                     	;# 
   139  019C                     	;# 
   140  019C                     	;# 
   141  019C                     	;# 
   142  019D                     	;# 
   143  019D                     	;# 
   144  019D                     	;# 
   145  019E                     	;# 
   146  019E                     	;# 
   147  019E                     	;# 
   148  019F                     	;# 
   149  019F                     	;# 
   150  019F                     	;# 
   151  019F                     	;# 
   152  019F                     	;# 
   153  020C                     	;# 
   154  020D                     	;# 
   155  020E                     	;# 
   156  0210                     	;# 
   157  0211                     	;# 
   158  0211                     	;# 
   159  0212                     	;# 
   160  0212                     	;# 
   161  0213                     	;# 
   162  0213                     	;# 
   163  0214                     	;# 
   164  0214                     	;# 
   165  0215                     	;# 
   166  0215                     	;# 
   167  0215                     	;# 
   168  0215                     	;# 
   169  0216                     	;# 
   170  0216                     	;# 
   171  0217                     	;# 
   172  0217                     	;# 
   173  021B                     	;# 
   174  021C                     	;# 
   175  021D                     	;# 
   176  021E                     	;# 
   177  021F                     	;# 
   178  028C                     	;# 
   179  028D                     	;# 
   180  028E                     	;# 
   181  0291                     	;# 
   182  0291                     	;# 
   183  0292                     	;# 
   184  0293                     	;# 
   185  0294                     	;# 
   186  0295                     	;# 
   187  0295                     	;# 
   188  0296                     	;# 
   189  0297                     	;# 
   190  0298                     	;# 
   191  0299                     	;# 
   192  0299                     	;# 
   193  029A                     	;# 
   194  029B                     	;# 
   195  029C                     	;# 
   196  029E                     	;# 
   197  029F                     	;# 
   198  030C                     	;# 
   199  030D                     	;# 
   200  030E                     	;# 
   201  0315                     	;# 
   202  0316                     	;# 
   203  0317                     	;# 
   204  0318                     	;# 
   205  0319                     	;# 
   206  031B                     	;# 
   207  031C                     	;# 
   208  031D                     	;# 
   209  031E                     	;# 
   210  031F                     	;# 
   211  038C                     	;# 
   212  038D                     	;# 
   213  038E                     	;# 
   214  0390                     	;# 
   215  0391                     	;# 
   216  0392                     	;# 
   217  0393                     	;# 
   218  0394                     	;# 
   219  0395                     	;# 
   220  0396                     	;# 
   221  0397                     	;# 
   222  0398                     	;# 
   223  0399                     	;# 
   224  039D                     	;# 
   225  039E                     	;# 
   226  039F                     	;# 
   227  040D                     	;# 
   228  040F                     	;# 
   229  040F                     	;# 
   230  0410                     	;# 
   231  0411                     	;# 
   232  0412                     	;# 
   233  0413                     	;# 
   234  0413                     	;# 
   235  0414                     	;# 
   236  0414                     	;# 
   237  0415                     	;# 
   238  0416                     	;# 
   239  0417                     	;# 
   240  0418                     	;# 
   241  041A                     	;# 
   242  041A                     	;# 
   243  041B                     	;# 
   244  041B                     	;# 
   245  041C                     	;# 
   246  041D                     	;# 
   247  041E                     	;# 
   248  041F                     	;# 
   249  048E                     	;# 
   250  048E                     	;# 
   251  048F                     	;# 
   252  0490                     	;# 
   253  0491                     	;# 
   254  0492                     	;# 
   255  0493                     	;# 
   256  0493                     	;# 
   257  0494                     	;# 
   258  0494                     	;# 
   259  0495                     	;# 
   260  0496                     	;# 
   261  0497                     	;# 
   262  0498                     	;# 
   263  049A                     	;# 
   264  049A                     	;# 
   265  049B                     	;# 
   266  049B                     	;# 
   267  049C                     	;# 
   268  049D                     	;# 
   269  049E                     	;# 
   270  049F                     	;# 
   271  050F                     	;# 
   272  0510                     	;# 
   273  0511                     	;# 
   274  0512                     	;# 
   275  0513                     	;# 
   276  0514                     	;# 
   277  0515                     	;# 
   278  0516                     	;# 
   279  0517                     	;# 
   280  0518                     	;# 
   281  0519                     	;# 
   282  051A                     	;# 
   283  058D                     	;# 
   284  058E                     	;# 
   285  058F                     	;# 
   286  058F                     	;# 
   287  058F                     	;# 
   288  0590                     	;# 
   289  0590                     	;# 
   290  0591                     	;# 
   291  0592                     	;# 
   292  0592                     	;# 
   293  0592                     	;# 
   294  0593                     	;# 
   295  0593                     	;# 
   296  0594                     	;# 
   297  0595                     	;# 
   298  0595                     	;# 
   299  0596                     	;# 
   300  0597                     	;# 
   301  0597                     	;# 
   302  0598                     	;# 
   303  0599                     	;# 
   304  0599                     	;# 
   305  0599                     	;# 
   306  059A                     	;# 
   307  059A                     	;# 
   308  059E                     	;# 
   309  059F                     	;# 
   310  059F                     	;# 
   311  0614                     	;# 
   312  0614                     	;# 
   313  0615                     	;# 
   314  0616                     	;# 
   315  0617                     	;# 
   316  0617                     	;# 
   317  0618                     	;# 
   318  0619                     	;# 
   319  061A                     	;# 
   320  061A                     	;# 
   321  061B                     	;# 
   322  061C                     	;# 
   323  068D                     	;# 
   324  068E                     	;# 
   325  068F                     	;# 
   326  0690                     	;# 
   327  0691                     	;# 
   328  0692                     	;# 
   329  0693                     	;# 
   330  0694                     	;# 
   331  0695                     	;# 
   332  0696                     	;# 
   333  0697                     	;# 
   334  0698                     	;# 
   335  0699                     	;# 
   336  069A                     	;# 
   337  069B                     	;# 
   338  069C                     	;# 
   339  069D                     	;# 
   340  069E                     	;# 
   341  069F                     	;# 
   342  070D                     	;# 
   343  070E                     	;# 
   344  070F                     	;# 
   345  0710                     	;# 
   346  0711                     	;# 
   347  0712                     	;# 
   348  0713                     	;# 
   349  0714                     	;# 
   350  0715                     	;# 
   351  0716                     	;# 
   352  0717                     	;# 
   353  0718                     	;# 
   354  0719                     	;# 
   355  071A                     	;# 
   356  071B                     	;# 
   357  071C                     	;# 
   358  071D                     	;# 
   359  071E                     	;# 
   360  071F                     	;# 
   361  078E                     	;# 
   362  078F                     	;# 
   363  0790                     	;# 
   364  0791                     	;# 
   365  0792                     	;# 
   366  0793                     	;# 
   367  0794                     	;# 
   368  0795                     	;# 
   369  0796                     	;# 
   370  0797                     	;# 
   371  0798                     	;# 
   372  0799                     	;# 
   373  079A                     	;# 
   374  079B                     	;# 
   375  079C                     	;# 
   376  079D                     	;# 
   377  079E                     	;# 
   378  079F                     	;# 
   379  080D                     	;# 
   380  080E                     	;# 
   381  080F                     	;# 
   382  0810                     	;# 
   383  0811                     	;# 
   384  0812                     	;# 
   385  0813                     	;# 
   386  0814                     	;# 
   387  0815                     	;# 
   388  0816                     	;# 
   389  0817                     	;# 
   390  0818                     	;# 
   391  0819                     	;# 
   392  081A                     	;# 
   393  081B                     	;# 
   394  081C                     	;# 
   395  081D                     	;# 
   396  081E                     	;# 
   397  081F                     	;# 
   398  090C                     	;# 
   399  090D                     	;# 
   400  090E                     	;# 
   401  090F                     	;# 
   402  0910                     	;# 
   403  0911                     	;# 
   404  0912                     	;# 
   405  0913                     	;# 
   406  0914                     	;# 
   407  0915                     	;# 
   408  0916                     	;# 
   409  0917                     	;# 
   410  0D8E                     	;# 
   411  0D8F                     	;# 
   412  0D90                     	;# 
   413  0D91                     	;# 
   414  0D91                     	;# 
   415  0D92                     	;# 
   416  0D93                     	;# 
   417  0D93                     	;# 
   418  0D94                     	;# 
   419  0D95                     	;# 
   420  0D95                     	;# 
   421  0D96                     	;# 
   422  0D97                     	;# 
   423  0D97                     	;# 
   424  0D98                     	;# 
   425  0D99                     	;# 
   426  0D99                     	;# 
   427  0D9A                     	;# 
   428  0D9B                     	;# 
   429  0D9C                     	;# 
   430  0D9C                     	;# 
   431  0D9D                     	;# 
   432  0D9D                     	;# 
   433  0D9E                     	;# 
   434  0D9F                     	;# 
   435  0DA0                     	;# 
   436  0DA1                     	;# 
   437  0DA1                     	;# 
   438  0DA2                     	;# 
   439  0DA3                     	;# 
   440  0DA3                     	;# 
   441  0DA4                     	;# 
   442  0DA5                     	;# 
   443  0DA5                     	;# 
   444  0DA6                     	;# 
   445  0DA7                     	;# 
   446  0DA7                     	;# 
   447  0DA8                     	;# 
   448  0DA9                     	;# 
   449  0DA9                     	;# 
   450  0DAA                     	;# 
   451  0DAB                     	;# 
   452  0DAC                     	;# 
   453  0DAC                     	;# 
   454  0DAD                     	;# 
   455  0DAD                     	;# 
   456  0DAE                     	;# 
   457  0DAF                     	;# 
   458  0DB0                     	;# 
   459  0DB1                     	;# 
   460  0DB1                     	;# 
   461  0DB2                     	;# 
   462  0DB3                     	;# 
   463  0DB3                     	;# 
   464  0DB4                     	;# 
   465  0DB5                     	;# 
   466  0DB5                     	;# 
   467  0DB6                     	;# 
   468  0DB7                     	;# 
   469  0DB7                     	;# 
   470  0DB8                     	;# 
   471  0DB9                     	;# 
   472  0DB9                     	;# 
   473  0DBA                     	;# 
   474  0DBB                     	;# 
   475  0DBC                     	;# 
   476  0DBC                     	;# 
   477  0DBD                     	;# 
   478  0DBD                     	;# 
   479  0DBE                     	;# 
   480  0DBF                     	;# 
   481  0DC0                     	;# 
   482  0E0C                     	;# 
   483  0E0D                     	;# 
   484  0E0E                     	;# 
   485  0E0F                     	;# 
   486  0E10                     	;# 
   487  0E11                     	;# 
   488  0E12                     	;# 
   489  0E13                     	;# 
   490  0E14                     	;# 
   491  0E15                     	;# 
   492  0E15                     	;# 
   493  0E15                     	;# 
   494  0E16                     	;# 
   495  0E16                     	;# 
   496  0E16                     	;# 
   497  0E17                     	;# 
   498  0E17                     	;# 
   499  0E17                     	;# 
   500  0E18                     	;# 
   501  0E18                     	;# 
   502  0E18                     	;# 
   503  0E19                     	;# 
   504  0E1A                     	;# 
   505  0E1B                     	;# 
   506  0E1D                     	;# 
   507  0E1E                     	;# 
   508  0E1F                     	;# 
   509  0E21                     	;# 
   510  0E22                     	;# 
   511  0E23                     	;# 
   512  0E24                     	;# 
   513  0E25                     	;# 
   514  0E26                     	;# 
   515  0E27                     	;# 
   516  0E28                     	;# 
   517  0E29                     	;# 
   518  0E2D                     	;# 
   519  0E2E                     	;# 
   520  0E2F                     	;# 
   521  0E30                     	;# 
   522  0E31                     	;# 
   523  0E32                     	;# 
   524  0E35                     	;# 
   525  0E36                     	;# 
   526  0E37                     	;# 
   527  0E38                     	;# 
   528  0E39                     	;# 
   529  0E3A                     	;# 
   530  0E3B                     	;# 
   531  0E3C                     	;# 
   532  0E3D                     	;# 
   533  0E3E                     	;# 
   534  0E90                     	;# 
   535  0E91                     	;# 
   536  0E92                     	;# 
   537  0E93                     	;# 
   538  0E94                     	;# 
   539  0E95                     	;# 
   540  0E96                     	;# 
   541  0E97                     	;# 
   542  0E98                     	;# 
   543  0E99                     	;# 
   544  0E9A                     	;# 
   545  0E9B                     	;# 
   546  0E9C                     	;# 
   547  0E9D                     	;# 
   548  0E9E                     	;# 
   549  0E9F                     	;# 
   550  0EA0                     	;# 
   551  0EA1                     	;# 
   552  0EA2                     	;# 
   553  0EA3                     	;# 
   554  0EA4                     	;# 
   555  0EA5                     	;# 
   556  0EA6                     	;# 
   557  0EA7                     	;# 
   558  0F0F                     	;# 
   559  0F10                     	;# 
   560  0F11                     	;# 
   561  0F12                     	;# 
   562  0F13                     	;# 
   563  0F14                     	;# 
   564  0F15                     	;# 
   565  0F16                     	;# 
   566  0F17                     	;# 
   567  0F18                     	;# 
   568  0F19                     	;# 
   569  0F1A                     	;# 
   570  0F1B                     	;# 
   571  0F1C                     	;# 
   572  0F1D                     	;# 
   573  0F1E                     	;# 
   574  0F1F                     	;# 
   575  0F20                     	;# 
   576  0F21                     	;# 
   577  0F22                     	;# 
   578  0F23                     	;# 
   579  0F24                     	;# 
   580  0F25                     	;# 
   581  0F26                     	;# 
   582  0F27                     	;# 
   583  0F28                     	;# 
   584  0F29                     	;# 
   585  0F2A                     	;# 
   586  0F2B                     	;# 
   587  0F2C                     	;# 
   588  0F2D                     	;# 
   589  0F2E                     	;# 
   590  0F2F                     	;# 
   591  0F30                     	;# 
   592  0F31                     	;# 
   593  0F32                     	;# 
   594  0F33                     	;# 
   595  0F34                     	;# 
   596  0F35                     	;# 
   597  0F36                     	;# 
   598  0F37                     	;# 
   599  0FE4                     	;# 
   600  0FE5                     	;# 
   601  0FE6                     	;# 
   602  0FE7                     	;# 
   603  0FE8                     	;# 
   604  0FE9                     	;# 
   605  0FEA                     	;# 
   606  0FEB                     	;# 
   607  0FED                     	;# 
   608  0FEE                     	;# 
   609  0FEF                     	;# 
   610  0000                     	;# 
   611  0001                     	;# 
   612  0002                     	;# 
   613  0003                     	;# 
   614  0004                     	;# 
   615  0005                     	;# 
   616  0006                     	;# 
   617  0007                     	;# 
   618  0008                     	;# 
   619  0009                     	;# 
   620  000A                     	;# 
   621  000B                     	;# 
   622  000C                     	;# 
   623  000D                     	;# 
   624  000E                     	;# 
   625  0010                     	;# 
   626  0011                     	;# 
   627  0012                     	;# 
   628  0013                     	;# 
   629  0014                     	;# 
   630  0015                     	;# 
   631  0016                     	;# 
   632  0017                     	;# 
   633  0018                     	;# 
   634  0018                     	;# 
   635  0019                     	;# 
   636  001A                     	;# 
   637  001B                     	;# 
   638  001C                     	;# 
   639  001C                     	;# 
   640  001D                     	;# 
   641  001E                     	;# 
   642  001F                     	;# 
   643  008C                     	;# 
   644  008D                     	;# 
   645  008E                     	;# 
   646  0090                     	;# 
   647  0091                     	;# 
   648  0092                     	;# 
   649  0093                     	;# 
   650  0094                     	;# 
   651  0095                     	;# 
   652  0096                     	;# 
   653  0097                     	;# 
   654  0098                     	;# 
   655  0099                     	;# 
   656  009A                     	;# 
   657  009B                     	;# 
   658  009C                     	;# 
   659  009D                     	;# 
   660  009E                     	;# 
   661  009F                     	;# 
   662  010C                     	;# 
   663  010D                     	;# 
   664  010E                     	;# 
   665  0111                     	;# 
   666  0112                     	;# 
   667  0113                     	;# 
   668  0114                     	;# 
   669  0115                     	;# 
   670  0116                     	;# 
   671  0117                     	;# 
   672  0118                     	;# 
   673  0119                     	;# 
   674  011A                     	;# 
   675  011B                     	;# 
   676  011C                     	;# 
   677  011D                     	;# 
   678  018C                     	;# 
   679  018D                     	;# 
   680  018E                     	;# 
   681  0191                     	;# 
   682  0191                     	;# 
   683  0192                     	;# 
   684  0193                     	;# 
   685  0193                     	;# 
   686  0194                     	;# 
   687  0195                     	;# 
   688  0196                     	;# 
   689  0197                     	;# 
   690  0199                     	;# 
   691  0199                     	;# 
   692  0199                     	;# 
   693  019A                     	;# 
   694  019A                     	;# 
   695  019A                     	;# 
   696  019B                     	;# 
   697  019B                     	;# 
   698  019B                     	;# 
   699  019B                     	;# 
   700  019B                     	;# 
   701  019C                     	;# 
   702  019C                     	;# 
   703  019C                     	;# 
   704  019D                     	;# 
   705  019D                     	;# 
   706  019D                     	;# 
   707  019E                     	;# 
   708  019E                     	;# 
   709  019E                     	;# 
   710  019F                     	;# 
   711  019F                     	;# 
   712  019F                     	;# 
   713  019F                     	;# 
   714  019F                     	;# 
   715  020C                     	;# 
   716  020D                     	;# 
   717  020E                     	;# 
   718  0210                     	;# 
   719  0211                     	;# 
   720  0211                     	;# 
   721  0212                     	;# 
   722  0212                     	;# 
   723  0213                     	;# 
   724  0213                     	;# 
   725  0214                     	;# 
   726  0214                     	;# 
   727  0215                     	;# 
   728  0215                     	;# 
   729  0215                     	;# 
   730  0215                     	;# 
   731  0216                     	;# 
   732  0216                     	;# 
   733  0217                     	;# 
   734  0217                     	;# 
   735  021B                     	;# 
   736  021C                     	;# 
   737  021D                     	;# 
   738  021E                     	;# 
   739  021F                     	;# 
   740  028C                     	;# 
   741  028D                     	;# 
   742  028E                     	;# 
   743  0291                     	;# 
   744  0291                     	;# 
   745  0292                     	;# 
   746  0293                     	;# 
   747  0294                     	;# 
   748  0295                     	;# 
   749  0295                     	;# 
   750  0296                     	;# 
   751  0297                     	;# 
   752  0298                     	;# 
   753  0299                     	;# 
   754  0299                     	;# 
   755  029A                     	;# 
   756  029B                     	;# 
   757  029C                     	;# 
   758  029E                     	;# 
   759  029F                     	;# 
   760  030C                     	;# 
   761  030D                     	;# 
   762  030E                     	;# 
   763  0315                     	;# 
   764  0316                     	;# 
   765  0317                     	;# 
   766  0318                     	;# 
   767  0319                     	;# 
   768  031B                     	;# 
   769  031C                     	;# 
   770  031D                     	;# 
   771  031E                     	;# 
   772  031F                     	;# 
   773  038C                     	;# 
   774  038D                     	;# 
   775  038E                     	;# 
   776  0390                     	;# 
   777  0391                     	;# 
   778  0392                     	;# 
   779  0393                     	;# 
   780  0394                     	;# 
   781  0395                     	;# 
   782  0396                     	;# 
   783  0397                     	;# 
   784  0398                     	;# 
   785  0399                     	;# 
   786  039D                     	;# 
   787  039E                     	;# 
   788  039F                     	;# 
   789  040D                     	;# 
   790  040F                     	;# 
   791  040F                     	;# 
   792  0410                     	;# 
   793  0411                     	;# 
   794  0412                     	;# 
   795  0413                     	;# 
   796  0413                     	;# 
   797  0414                     	;# 
   798  0414                     	;# 
   799  0415                     	;# 
   800  0416                     	;# 
   801  0417                     	;# 
   802  0418                     	;# 
   803  041A                     	;# 
   804  041A                     	;# 
   805  041B                     	;# 
   806  041B                     	;# 
   807  041C                     	;# 
   808  041D                     	;# 
   809  041E                     	;# 
   810  041F                     	;# 
   811  048E                     	;# 
   812  048E                     	;# 
   813  048F                     	;# 
   814  0490                     	;# 
   815  0491                     	;# 
   816  0492                     	;# 
   817  0493                     	;# 
   818  0493                     	;# 
   819  0494                     	;# 
   820  0494                     	;# 
   821  0495                     	;# 
   822  0496                     	;# 
   823  0497                     	;# 
   824  0498                     	;# 
   825  049A                     	;# 
   826  049A                     	;# 
   827  049B                     	;# 
   828  049B                     	;# 
   829  049C                     	;# 
   830  049D                     	;# 
   831  049E                     	;# 
   832  049F                     	;# 
   833  050F                     	;# 
   834  0510                     	;# 
   835  0511                     	;# 
   836  0512                     	;# 
   837  0513                     	;# 
   838  0514                     	;# 
   839  0515                     	;# 
   840  0516                     	;# 
   841  0517                     	;# 
   842  0518                     	;# 
   843  0519                     	;# 
   844  051A                     	;# 
   845  058D                     	;# 
   846  058E                     	;# 
   847  058F                     	;# 
   848  058F                     	;# 
   849  058F                     	;# 
   850  0590                     	;# 
   851  0590                     	;# 
   852  0591                     	;# 
   853  0592                     	;# 
   854  0592                     	;# 
   855  0592                     	;# 
   856  0593                     	;# 
   857  0593                     	;# 
   858  0594                     	;# 
   859  0595                     	;# 
   860  0595                     	;# 
   861  0596                     	;# 
   862  0597                     	;# 
   863  0597                     	;# 
   864  0598                     	;# 
   865  0599                     	;# 
   866  0599                     	;# 
   867  0599                     	;# 
   868  059A                     	;# 
   869  059A                     	;# 
   870  059E                     	;# 
   871  059F                     	;# 
   872  059F                     	;# 
   873  0614                     	;# 
   874  0614                     	;# 
   875  0615                     	;# 
   876  0616                     	;# 
   877  0617                     	;# 
   878  0617                     	;# 
   879  0618                     	;# 
   880  0619                     	;# 
   881  061A                     	;# 
   882  061A                     	;# 
   883  061B                     	;# 
   884  061C                     	;# 
   885  068D                     	;# 
   886  068E                     	;# 
   887  068F                     	;# 
   888  0690                     	;# 
   889  0691                     	;# 
   890  0692                     	;# 
   891  0693                     	;# 
   892  0694                     	;# 
   893  0695                     	;# 
   894  0696                     	;# 
   895  0697                     	;# 
   896  0698                     	;# 
   897  0699                     	;# 
   898  069A                     	;# 
   899  069B                     	;# 
   900  069C                     	;# 
   901  069D                     	;# 
   902  069E                     	;# 
   903  069F                     	;# 
   904  070D                     	;# 
   905  070E                     	;# 
   906  070F                     	;# 
   907  0710                     	;# 
   908  0711                     	;# 
   909  0712                     	;# 
   910  0713                     	;# 
   911  0714                     	;# 
   912  0715                     	;# 
   913  0716                     	;# 
   914  0717                     	;# 
   915  0718                     	;# 
   916  0719                     	;# 
   917  071A                     	;# 
   918  071B                     	;# 
   919  071C                     	;# 
   920  071D                     	;# 
   921  071E                     	;# 
   922  071F                     	;# 
   923  078E                     	;# 
   924  078F                     	;# 
   925  0790                     	;# 
   926  0791                     	;# 
   927  0792                     	;# 
   928  0793                     	;# 
   929  0794                     	;# 
   930  0795                     	;# 
   931  0796                     	;# 
   932  0797                     	;# 
   933  0798                     	;# 
   934  0799                     	;# 
   935  079A                     	;# 
   936  079B                     	;# 
   937  079C                     	;# 
   938  079D                     	;# 
   939  079E                     	;# 
   940  079F                     	;# 
   941  080D                     	;# 
   942  080E                     	;# 
   943  080F                     	;# 
   944  0810                     	;# 
   945  0811                     	;# 
   946  0812                     	;# 
   947  0813                     	;# 
   948  0814                     	;# 
   949  0815                     	;# 
   950  0816                     	;# 
   951  0817                     	;# 
   952  0818                     	;# 
   953  0819                     	;# 
   954  081A                     	;# 
   955  081B                     	;# 
   956  081C                     	;# 
   957  081D                     	;# 
   958  081E                     	;# 
   959  081F                     	;# 
   960  090C                     	;# 
   961  090D                     	;# 
   962  090E                     	;# 
   963  090F                     	;# 
   964  0910                     	;# 
   965  0911                     	;# 
   966  0912                     	;# 
   967  0913                     	;# 
   968  0914                     	;# 
   969  0915                     	;# 
   970  0916                     	;# 
   971  0917                     	;# 
   972  0D8E                     	;# 
   973  0D8F                     	;# 
   974  0D90                     	;# 
   975  0D91                     	;# 
   976  0D91                     	;# 
   977  0D92                     	;# 
   978  0D93                     	;# 
   979  0D93                     	;# 
   980  0D94                     	;# 
   981  0D95                     	;# 
   982  0D95                     	;# 
   983  0D96                     	;# 
   984  0D97                     	;# 
   985  0D97                     	;# 
   986  0D98                     	;# 
   987  0D99                     	;# 
   988  0D99                     	;# 
   989  0D9A                     	;# 
   990  0D9B                     	;# 
   991  0D9C                     	;# 
   992  0D9C                     	;# 
   993  0D9D                     	;# 
   994  0D9D                     	;# 
   995  0D9E                     	;# 
   996  0D9F                     	;# 
   997  0DA0                     	;# 
   998  0DA1                     	;# 
   999  0DA1                     	;# 
  1000  0DA2                     	;# 
  1001  0DA3                     	;# 
  1002  0DA3                     	;# 
  1003  0DA4                     	;# 
  1004  0DA5                     	;# 
  1005  0DA5                     	;# 
  1006  0DA6                     	;# 
  1007  0DA7                     	;# 
  1008  0DA7                     	;# 
  1009  0DA8                     	;# 
  1010  0DA9                     	;# 
  1011  0DA9                     	;# 
  1012  0DAA                     	;# 
  1013  0DAB                     	;# 
  1014  0DAC                     	;# 
  1015  0DAC                     	;# 
  1016  0DAD                     	;# 
  1017  0DAD                     	;# 
  1018  0DAE                     	;# 
  1019  0DAF                     	;# 
  1020  0DB0                     	;# 
  1021  0DB1                     	;# 
  1022  0DB1                     	;# 
  1023  0DB2                     	;# 
  1024  0DB3                     	;# 
  1025  0DB3                     	;# 
  1026  0DB4                     	;# 
  1027  0DB5                     	;# 
  1028  0DB5                     	;# 
  1029  0DB6                     	;# 
  1030  0DB7                     	;# 
  1031  0DB7                     	;# 
  1032  0DB8                     	;# 
  1033  0DB9                     	;# 
  1034  0DB9                     	;# 
  1035  0DBA                     	;# 
  1036  0DBB                     	;# 
  1037  0DBC                     	;# 
  1038  0DBC                     	;# 
  1039  0DBD                     	;# 
  1040  0DBD                     	;# 
  1041  0DBE                     	;# 
  1042  0DBF                     	;# 
  1043  0DC0                     	;# 
  1044  0E0C                     	;# 
  1045  0E0D                     	;# 
  1046  0E0E                     	;# 
  1047  0E0F                     	;# 
  1048  0E10                     	;# 
  1049  0E11                     	;# 
  1050  0E12                     	;# 
  1051  0E13                     	;# 
  1052  0E14                     	;# 
  1053  0E15                     	;# 
  1054  0E15                     	;# 
  1055  0E15                     	;# 
  1056  0E16                     	;# 
  1057  0E16                     	;# 
  1058  0E16                     	;# 
  1059  0E17                     	;# 
  1060  0E17                     	;# 
  1061  0E17                     	;# 
  1062  0E18                     	;# 
  1063  0E18                     	;# 
  1064  0E18                     	;# 
  1065  0E19                     	;# 
  1066  0E1A                     	;# 
  1067  0E1B                     	;# 
  1068  0E1D                     	;# 
  1069  0E1E                     	;# 
  1070  0E1F                     	;# 
  1071  0E21                     	;# 
  1072  0E22                     	;# 
  1073  0E23                     	;# 
  1074  0E24                     	;# 
  1075  0E25                     	;# 
  1076  0E26                     	;# 
  1077  0E27                     	;# 
  1078  0E28                     	;# 
  1079  0E29                     	;# 
  1080  0E2D                     	;# 
  1081  0E2E                     	;# 
  1082  0E2F                     	;# 
  1083  0E30                     	;# 
  1084  0E31                     	;# 
  1085  0E32                     	;# 
  1086  0E35                     	;# 
  1087  0E36                     	;# 
  1088  0E37                     	;# 
  1089  0E38                     	;# 
  1090  0E39                     	;# 
  1091  0E3A                     	;# 
  1092  0E3B                     	;# 
  1093  0E3C                     	;# 
  1094  0E3D                     	;# 
  1095  0E3E                     	;# 
  1096  0E90                     	;# 
  1097  0E91                     	;# 
  1098  0E92                     	;# 
  1099  0E93                     	;# 
  1100  0E94                     	;# 
  1101  0E95                     	;# 
  1102  0E96                     	;# 
  1103  0E97                     	;# 
  1104  0E98                     	;# 
  1105  0E99                     	;# 
  1106  0E9A                     	;# 
  1107  0E9B                     	;# 
  1108  0E9C                     	;# 
  1109  0E9D                     	;# 
  1110  0E9E                     	;# 
  1111  0E9F                     	;# 
  1112  0EA0                     	;# 
  1113  0EA1                     	;# 
  1114  0EA2                     	;# 
  1115  0EA3                     	;# 
  1116  0EA4                     	;# 
  1117  0EA5                     	;# 
  1118  0EA6                     	;# 
  1119  0EA7                     	;# 
  1120  0F0F                     	;# 
  1121  0F10                     	;# 
  1122  0F11                     	;# 
  1123  0F12                     	;# 
  1124  0F13                     	;# 
  1125  0F14                     	;# 
  1126  0F15                     	;# 
  1127  0F16                     	;# 
  1128  0F17                     	;# 
  1129  0F18                     	;# 
  1130  0F19                     	;# 
  1131  0F1A                     	;# 
  1132  0F1B                     	;# 
  1133  0F1C                     	;# 
  1134  0F1D                     	;# 
  1135  0F1E                     	;# 
  1136  0F1F                     	;# 
  1137  0F20                     	;# 
  1138  0F21                     	;# 
  1139  0F22                     	;# 
  1140  0F23                     	;# 
  1141  0F24                     	;# 
  1142  0F25                     	;# 
  1143  0F26                     	;# 
  1144  0F27                     	;# 
  1145  0F28                     	;# 
  1146  0F29                     	;# 
  1147  0F2A                     	;# 
  1148  0F2B                     	;# 
  1149  0F2C                     	;# 
  1150  0F2D                     	;# 
  1151  0F2E                     	;# 
  1152  0F2F                     	;# 
  1153  0F30                     	;# 
  1154  0F31                     	;# 
  1155  0F32                     	;# 
  1156  0F33                     	;# 
  1157  0F34                     	;# 
  1158  0F35                     	;# 
  1159  0F36                     	;# 
  1160  0F37                     	;# 
  1161  0FE4                     	;# 
  1162  0FE5                     	;# 
  1163  0FE6                     	;# 
  1164  0FE7                     	;# 
  1165  0FE8                     	;# 
  1166  0FE9                     	;# 
  1167  0FEA                     	;# 
  1168  0FEB                     	;# 
  1169  0FED                     	;# 
  1170  0FEE                     	;# 
  1171  0FEF                     	;# 
  1172  0000                     	;# 
  1173  0001                     	;# 
  1174  0002                     	;# 
  1175  0003                     	;# 
  1176  0004                     	;# 
  1177  0005                     	;# 
  1178  0006                     	;# 
  1179  0007                     	;# 
  1180  0008                     	;# 
  1181  0009                     	;# 
  1182  000A                     	;# 
  1183  000B                     	;# 
  1184  000C                     	;# 
  1185  000D                     	;# 
  1186  000E                     	;# 
  1187  0010                     	;# 
  1188  0011                     	;# 
  1189  0012                     	;# 
  1190  0013                     	;# 
  1191  0014                     	;# 
  1192  0015                     	;# 
  1193  0016                     	;# 
  1194  0017                     	;# 
  1195  0018                     	;# 
  1196  0018                     	;# 
  1197  0019                     	;# 
  1198  001A                     	;# 
  1199  001B                     	;# 
  1200  001C                     	;# 
  1201  001C                     	;# 
  1202  001D                     	;# 
  1203  001E                     	;# 
  1204  001F                     	;# 
  1205  008C                     	;# 
  1206  008D                     	;# 
  1207  008E                     	;# 
  1208  0090                     	;# 
  1209  0091                     	;# 
  1210  0092                     	;# 
  1211  0093                     	;# 
  1212  0094                     	;# 
  1213  0095                     	;# 
  1214  0096                     	;# 
  1215  0097                     	;# 
  1216  0098                     	;# 
  1217  0099                     	;# 
  1218  009A                     	;# 
  1219  009B                     	;# 
  1220  009C                     	;# 
  1221  009D                     	;# 
  1222  009E                     	;# 
  1223  009F                     	;# 
  1224  010C                     	;# 
  1225  010D                     	;# 
  1226  010E                     	;# 
  1227  0111                     	;# 
  1228  0112                     	;# 
  1229  0113                     	;# 
  1230  0114                     	;# 
  1231  0115                     	;# 
  1232  0116                     	;# 
  1233  0117                     	;# 
  1234  0118                     	;# 
  1235  0119                     	;# 
  1236  011A                     	;# 
  1237  011B                     	;# 
  1238  011C                     	;# 
  1239  011D                     	;# 
  1240  018C                     	;# 
  1241  018D                     	;# 
  1242  018E                     	;# 
  1243  0191                     	;# 
  1244  0191                     	;# 
  1245  0192                     	;# 
  1246  0193                     	;# 
  1247  0193                     	;# 
  1248  0194                     	;# 
  1249  0195                     	;# 
  1250  0196                     	;# 
  1251  0197                     	;# 
  1252  0199                     	;# 
  1253  0199                     	;# 
  1254  0199                     	;# 
  1255  019A                     	;# 
  1256  019A                     	;# 
  1257  019A                     	;# 
  1258  019B                     	;# 
  1259  019B                     	;# 
  1260  019B                     	;# 
  1261  019B                     	;# 
  1262  019B                     	;# 
  1263  019C                     	;# 
  1264  019C                     	;# 
  1265  019C                     	;# 
  1266  019D                     	;# 
  1267  019D                     	;# 
  1268  019D                     	;# 
  1269  019E                     	;# 
  1270  019E                     	;# 
  1271  019E                     	;# 
  1272  019F                     	;# 
  1273  019F                     	;# 
  1274  019F                     	;# 
  1275  019F                     	;# 
  1276  019F                     	;# 
  1277  020C                     	;# 
  1278  020D                     	;# 
  1279  020E                     	;# 
  1280  0210                     	;# 
  1281  0211                     	;# 
  1282  0211                     	;# 
  1283  0212                     	;# 
  1284  0212                     	;# 
  1285  0213                     	;# 
  1286  0213                     	;# 
  1287  0214                     	;# 
  1288  0214                     	;# 
  1289  0215                     	;# 
  1290  0215                     	;# 
  1291  0215                     	;# 
  1292  0215                     	;# 
  1293  0216                     	;# 
  1294  0216                     	;# 
  1295  0217                     	;# 
  1296  0217                     	;# 
  1297  021B                     	;# 
  1298  021C                     	;# 
  1299  021D                     	;# 
  1300  021E                     	;# 
  1301  021F                     	;# 
  1302  028C                     	;# 
  1303  028D                     	;# 
  1304  028E                     	;# 
  1305  0291                     	;# 
  1306  0291                     	;# 
  1307  0292                     	;# 
  1308  0293                     	;# 
  1309  0294                     	;# 
  1310  0295                     	;# 
  1311  0295                     	;# 
  1312  0296                     	;# 
  1313  0297                     	;# 
  1314  0298                     	;# 
  1315  0299                     	;# 
  1316  0299                     	;# 
  1317  029A                     	;# 
  1318  029B                     	;# 
  1319  029C                     	;# 
  1320  029E                     	;# 
  1321  029F                     	;# 
  1322  030C                     	;# 
  1323  030D                     	;# 
  1324  030E                     	;# 
  1325  0315                     	;# 
  1326  0316                     	;# 
  1327  0317                     	;# 
  1328  0318                     	;# 
  1329  0319                     	;# 
  1330  031B                     	;# 
  1331  031C                     	;# 
  1332  031D                     	;# 
  1333  031E                     	;# 
  1334  031F                     	;# 
  1335  038C                     	;# 
  1336  038D                     	;# 
  1337  038E                     	;# 
  1338  0390                     	;# 
  1339  0391                     	;# 
  1340  0392                     	;# 
  1341  0393                     	;# 
  1342  0394                     	;# 
  1343  0395                     	;# 
  1344  0396                     	;# 
  1345  0397                     	;# 
  1346  0398                     	;# 
  1347  0399                     	;# 
  1348  039D                     	;# 
  1349  039E                     	;# 
  1350  039F                     	;# 
  1351  040D                     	;# 
  1352  040F                     	;# 
  1353  040F                     	;# 
  1354  0410                     	;# 
  1355  0411                     	;# 
  1356  0412                     	;# 
  1357  0413                     	;# 
  1358  0413                     	;# 
  1359  0414                     	;# 
  1360  0414                     	;# 
  1361  0415                     	;# 
  1362  0416                     	;# 
  1363  0417                     	;# 
  1364  0418                     	;# 
  1365  041A                     	;# 
  1366  041A                     	;# 
  1367  041B                     	;# 
  1368  041B                     	;# 
  1369  041C                     	;# 
  1370  041D                     	;# 
  1371  041E                     	;# 
  1372  041F                     	;# 
  1373  048E                     	;# 
  1374  048E                     	;# 
  1375  048F                     	;# 
  1376  0490                     	;# 
  1377  0491                     	;# 
  1378  0492                     	;# 
  1379  0493                     	;# 
  1380  0493                     	;# 
  1381  0494                     	;# 
  1382  0494                     	;# 
  1383  0495                     	;# 
  1384  0496                     	;# 
  1385  0497                     	;# 
  1386  0498                     	;# 
  1387  049A                     	;# 
  1388  049A                     	;# 
  1389  049B                     	;# 
  1390  049B                     	;# 
  1391  049C                     	;# 
  1392  049D                     	;# 
  1393  049E                     	;# 
  1394  049F                     	;# 
  1395  050F                     	;# 
  1396  0510                     	;# 
  1397  0511                     	;# 
  1398  0512                     	;# 
  1399  0513                     	;# 
  1400  0514                     	;# 
  1401  0515                     	;# 
  1402  0516                     	;# 
  1403  0517                     	;# 
  1404  0518                     	;# 
  1405  0519                     	;# 
  1406  051A                     	;# 
  1407  058D                     	;# 
  1408  058E                     	;# 
  1409  058F                     	;# 
  1410  058F                     	;# 
  1411  058F                     	;# 
  1412  0590                     	;# 
  1413  0590                     	;# 
  1414  0591                     	;# 
  1415  0592                     	;# 
  1416  0592                     	;# 
  1417  0592                     	;# 
  1418  0593                     	;# 
  1419  0593                     	;# 
  1420  0594                     	;# 
  1421  0595                     	;# 
  1422  0595                     	;# 
  1423  0596                     	;# 
  1424  0597                     	;# 
  1425  0597                     	;# 
  1426  0598                     	;# 
  1427  0599                     	;# 
  1428  0599                     	;# 
  1429  0599                     	;# 
  1430  059A                     	;# 
  1431  059A                     	;# 
  1432  059E                     	;# 
  1433  059F                     	;# 
  1434  059F                     	;# 
  1435  0614                     	;# 
  1436  0614                     	;# 
  1437  0615                     	;# 
  1438  0616                     	;# 
  1439  0617                     	;# 
  1440  0617                     	;# 
  1441  0618                     	;# 
  1442  0619                     	;# 
  1443  061A                     	;# 
  1444  061A                     	;# 
  1445  061B                     	;# 
  1446  061C                     	;# 
  1447  068D                     	;# 
  1448  068E                     	;# 
  1449  068F                     	;# 
  1450  0690                     	;# 
  1451  0691                     	;# 
  1452  0692                     	;# 
  1453  0693                     	;# 
  1454  0694                     	;# 
  1455  0695                     	;# 
  1456  0696                     	;# 
  1457  0697                     	;# 
  1458  0698                     	;# 
  1459  0699                     	;# 
  1460  069A                     	;# 
  1461  069B                     	;# 
  1462  069C                     	;# 
  1463  069D                     	;# 
  1464  069E                     	;# 
  1465  069F                     	;# 
  1466  070D                     	;# 
  1467  070E                     	;# 
  1468  070F                     	;# 
  1469  0710                     	;# 
  1470  0711                     	;# 
  1471  0712                     	;# 
  1472  0713                     	;# 
  1473  0714                     	;# 
  1474  0715                     	;# 
  1475  0716                     	;# 
  1476  0717                     	;# 
  1477  0718                     	;# 
  1478  0719                     	;# 
  1479  071A                     	;# 
  1480  071B                     	;# 
  1481  071C                     	;# 
  1482  071D                     	;# 
  1483  071E                     	;# 
  1484  071F                     	;# 
  1485  078E                     	;# 
  1486  078F                     	;# 
  1487  0790                     	;# 
  1488  0791                     	;# 
  1489  0792                     	;# 
  1490  0793                     	;# 
  1491  0794                     	;# 
  1492  0795                     	;# 
  1493  0796                     	;# 
  1494  0797                     	;# 
  1495  0798                     	;# 
  1496  0799                     	;# 
  1497  079A                     	;# 
  1498  079B                     	;# 
  1499  079C                     	;# 
  1500  079D                     	;# 
  1501  079E                     	;# 
  1502  079F                     	;# 
  1503  080D                     	;# 
  1504  080E                     	;# 
  1505  080F                     	;# 
  1506  0810                     	;# 
  1507  0811                     	;# 
  1508  0812                     	;# 
  1509  0813                     	;# 
  1510  0814                     	;# 
  1511  0815                     	;# 
  1512  0816                     	;# 
  1513  0817                     	;# 
  1514  0818                     	;# 
  1515  0819                     	;# 
  1516  081A                     	;# 
  1517  081B                     	;# 
  1518  081C                     	;# 
  1519  081D                     	;# 
  1520  081E                     	;# 
  1521  081F                     	;# 
  1522  090C                     	;# 
  1523  090D                     	;# 
  1524  090E                     	;# 
  1525  090F                     	;# 
  1526  0910                     	;# 
  1527  0911                     	;# 
  1528  0912                     	;# 
  1529  0913                     	;# 
  1530  0914                     	;# 
  1531  0915                     	;# 
  1532  0916                     	;# 
  1533  0917                     	;# 
  1534  0D8E                     	;# 
  1535  0D8F                     	;# 
  1536  0D90                     	;# 
  1537  0D91                     	;# 
  1538  0D91                     	;# 
  1539  0D92                     	;# 
  1540  0D93                     	;# 
  1541  0D93                     	;# 
  1542  0D94                     	;# 
  1543  0D95                     	;# 
  1544  0D95                     	;# 
  1545  0D96                     	;# 
  1546  0D97                     	;# 
  1547  0D97                     	;# 
  1548  0D98                     	;# 
  1549  0D99                     	;# 
  1550  0D99                     	;# 
  1551  0D9A                     	;# 
  1552  0D9B                     	;# 
  1553  0D9C                     	;# 
  1554  0D9C                     	;# 
  1555  0D9D                     	;# 
  1556  0D9D                     	;# 
  1557  0D9E                     	;# 
  1558  0D9F                     	;# 
  1559  0DA0                     	;# 
  1560  0DA1                     	;# 
  1561  0DA1                     	;# 
  1562  0DA2                     	;# 
  1563  0DA3                     	;# 
  1564  0DA3                     	;# 
  1565  0DA4                     	;# 
  1566  0DA5                     	;# 
  1567  0DA5                     	;# 
  1568  0DA6                     	;# 
  1569  0DA7                     	;# 
  1570  0DA7                     	;# 
  1571  0DA8                     	;# 
  1572  0DA9                     	;# 
  1573  0DA9                     	;# 
  1574  0DAA                     	;# 
  1575  0DAB                     	;# 
  1576  0DAC                     	;# 
  1577  0DAC                     	;# 
  1578  0DAD                     	;# 
  1579  0DAD                     	;# 
  1580  0DAE                     	;# 
  1581  0DAF                     	;# 
  1582  0DB0                     	;# 
  1583  0DB1                     	;# 
  1584  0DB1                     	;# 
  1585  0DB2                     	;# 
  1586  0DB3                     	;# 
  1587  0DB3                     	;# 
  1588  0DB4                     	;# 
  1589  0DB5                     	;# 
  1590  0DB5                     	;# 
  1591  0DB6                     	;# 
  1592  0DB7                     	;# 
  1593  0DB7                     	;# 
  1594  0DB8                     	;# 
  1595  0DB9                     	;# 
  1596  0DB9                     	;# 
  1597  0DBA                     	;# 
  1598  0DBB                     	;# 
  1599  0DBC                     	;# 
  1600  0DBC                     	;# 
  1601  0DBD                     	;# 
  1602  0DBD                     	;# 
  1603  0DBE                     	;# 
  1604  0DBF                     	;# 
  1605  0DC0                     	;# 
  1606  0E0C                     	;# 
  1607  0E0D                     	;# 
  1608  0E0E                     	;# 
  1609  0E0F                     	;# 
  1610  0E10                     	;# 
  1611  0E11                     	;# 
  1612  0E12                     	;# 
  1613  0E13                     	;# 
  1614  0E14                     	;# 
  1615  0E15                     	;# 
  1616  0E15                     	;# 
  1617  0E15                     	;# 
  1618  0E16                     	;# 
  1619  0E16                     	;# 
  1620  0E16                     	;# 
  1621  0E17                     	;# 
  1622  0E17                     	;# 
  1623  0E17                     	;# 
  1624  0E18                     	;# 
  1625  0E18                     	;# 
  1626  0E18                     	;# 
  1627  0E19                     	;# 
  1628  0E1A                     	;# 
  1629  0E1B                     	;# 
  1630  0E1D                     	;# 
  1631  0E1E                     	;# 
  1632  0E1F                     	;# 
  1633  0E21                     	;# 
  1634  0E22                     	;# 
  1635  0E23                     	;# 
  1636  0E24                     	;# 
  1637  0E25                     	;# 
  1638  0E26                     	;# 
  1639  0E27                     	;# 
  1640  0E28                     	;# 
  1641  0E29                     	;# 
  1642  0E2D                     	;# 
  1643  0E2E                     	;# 
  1644  0E2F                     	;# 
  1645  0E30                     	;# 
  1646  0E31                     	;# 
  1647  0E32                     	;# 
  1648  0E35                     	;# 
  1649  0E36                     	;# 
  1650  0E37                     	;# 
  1651  0E38                     	;# 
  1652  0E39                     	;# 
  1653  0E3A                     	;# 
  1654  0E3B                     	;# 
  1655  0E3C                     	;# 
  1656  0E3D                     	;# 
  1657  0E3E                     	;# 
  1658  0E90                     	;# 
  1659  0E91                     	;# 
  1660  0E92                     	;# 
  1661  0E93                     	;# 
  1662  0E94                     	;# 
  1663  0E95                     	;# 
  1664  0E96                     	;# 
  1665  0E97                     	;# 
  1666  0E98                     	;# 
  1667  0E99                     	;# 
  1668  0E9A                     	;# 
  1669  0E9B                     	;# 
  1670  0E9C                     	;# 
  1671  0E9D                     	;# 
  1672  0E9E                     	;# 
  1673  0E9F                     	;# 
  1674  0EA0                     	;# 
  1675  0EA1                     	;# 
  1676  0EA2                     	;# 
  1677  0EA3                     	;# 
  1678  0EA4                     	;# 
  1679  0EA5                     	;# 
  1680  0EA6                     	;# 
  1681  0EA7                     	;# 
  1682  0F0F                     	;# 
  1683  0F10                     	;# 
  1684  0F11                     	;# 
  1685  0F12                     	;# 
  1686  0F13                     	;# 
  1687  0F14                     	;# 
  1688  0F15                     	;# 
  1689  0F16                     	;# 
  1690  0F17                     	;# 
  1691  0F18                     	;# 
  1692  0F19                     	;# 
  1693  0F1A                     	;# 
  1694  0F1B                     	;# 
  1695  0F1C                     	;# 
  1696  0F1D                     	;# 
  1697  0F1E                     	;# 
  1698  0F1F                     	;# 
  1699  0F20                     	;# 
  1700  0F21                     	;# 
  1701  0F22                     	;# 
  1702  0F23                     	;# 
  1703  0F24                     	;# 
  1704  0F25                     	;# 
  1705  0F26                     	;# 
  1706  0F27                     	;# 
  1707  0F28                     	;# 
  1708  0F29                     	;# 
  1709  0F2A                     	;# 
  1710  0F2B                     	;# 
  1711  0F2C                     	;# 
  1712  0F2D                     	;# 
  1713  0F2E                     	;# 
  1714  0F2F                     	;# 
  1715  0F30                     	;# 
  1716  0F31                     	;# 
  1717  0F32                     	;# 
  1718  0F33                     	;# 
  1719  0F34                     	;# 
  1720  0F35                     	;# 
  1721  0F36                     	;# 
  1722  0F37                     	;# 
  1723  0FE4                     	;# 
  1724  0FE5                     	;# 
  1725  0FE6                     	;# 
  1726  0FE7                     	;# 
  1727  0FE8                     	;# 
  1728  0FE9                     	;# 
  1729  0FEA                     	;# 
  1730  0FEB                     	;# 
  1731  0FED                     	;# 
  1732  0FEE                     	;# 
  1733  0FEF                     	;# 
  1734  0000                     	;# 
  1735  0001                     	;# 
  1736  0002                     	;# 
  1737  0003                     	;# 
  1738  0004                     	;# 
  1739  0005                     	;# 
  1740  0006                     	;# 
  1741  0007                     	;# 
  1742  0008                     	;# 
  1743  0009                     	;# 
  1744  000A                     	;# 
  1745  000B                     	;# 
  1746  000C                     	;# 
  1747  000D                     	;# 
  1748  000E                     	;# 
  1749  0010                     	;# 
  1750  0011                     	;# 
  1751  0012                     	;# 
  1752  0013                     	;# 
  1753  0014                     	;# 
  1754  0015                     	;# 
  1755  0016                     	;# 
  1756  0017                     	;# 
  1757  0018                     	;# 
  1758  0018                     	;# 
  1759  0019                     	;# 
  1760  001A                     	;# 
  1761  001B                     	;# 
  1762  001C                     	;# 
  1763  001C                     	;# 
  1764  001D                     	;# 
  1765  001E                     	;# 
  1766  001F                     	;# 
  1767  008C                     	;# 
  1768  008D                     	;# 
  1769  008E                     	;# 
  1770  0090                     	;# 
  1771  0091                     	;# 
  1772  0092                     	;# 
  1773  0093                     	;# 
  1774  0094                     	;# 
  1775  0095                     	;# 
  1776  0096                     	;# 
  1777  0097                     	;# 
  1778  0098                     	;# 
  1779  0099                     	;# 
  1780  009A                     	;# 
  1781  009B                     	;# 
  1782  009C                     	;# 
  1783  009D                     	;# 
  1784  009E                     	;# 
  1785  009F                     	;# 
  1786  010C                     	;# 
  1787  010D                     	;# 
  1788  010E                     	;# 
  1789  0111                     	;# 
  1790  0112                     	;# 
  1791  0113                     	;# 
  1792  0114                     	;# 
  1793  0115                     	;# 
  1794  0116                     	;# 
  1795  0117                     	;# 
  1796  0118                     	;# 
  1797  0119                     	;# 
  1798  011A                     	;# 
  1799  011B                     	;# 
  1800  011C                     	;# 
  1801  011D                     	;# 
  1802  018C                     	;# 
  1803  018D                     	;# 
  1804  018E                     	;# 
  1805  0191                     	;# 
  1806  0191                     	;# 
  1807  0192                     	;# 
  1808  0193                     	;# 
  1809  0193                     	;# 
  1810  0194                     	;# 
  1811  0195                     	;# 
  1812  0196                     	;# 
  1813  0197                     	;# 
  1814  0199                     	;# 
  1815  0199                     	;# 
  1816  0199                     	;# 
  1817  019A                     	;# 
  1818  019A                     	;# 
  1819  019A                     	;# 
  1820  019B                     	;# 
  1821  019B                     	;# 
  1822  019B                     	;# 
  1823  019B                     	;# 
  1824  019B                     	;# 
  1825  019C                     	;# 
  1826  019C                     	;# 
  1827  019C                     	;# 
  1828  019D                     	;# 
  1829  019D                     	;# 
  1830  019D                     	;# 
  1831  019E                     	;# 
  1832  019E                     	;# 
  1833  019E                     	;# 
  1834  019F                     	;# 
  1835  019F                     	;# 
  1836  019F                     	;# 
  1837  019F                     	;# 
  1838  019F                     	;# 
  1839  020C                     	;# 
  1840  020D                     	;# 
  1841  020E                     	;# 
  1842  0210                     	;# 
  1843  0211                     	;# 
  1844  0211                     	;# 
  1845  0212                     	;# 
  1846  0212                     	;# 
  1847  0213                     	;# 
  1848  0213                     	;# 
  1849  0214                     	;# 
  1850  0214                     	;# 
  1851  0215                     	;# 
  1852  0215                     	;# 
  1853  0215                     	;# 
  1854  0215                     	;# 
  1855  0216                     	;# 
  1856  0216                     	;# 
  1857  0217                     	;# 
  1858  0217                     	;# 
  1859  021B                     	;# 
  1860  021C                     	;# 
  1861  021D                     	;# 
  1862  021E                     	;# 
  1863  021F                     	;# 
  1864  028C                     	;# 
  1865  028D                     	;# 
  1866  028E                     	;# 
  1867  0291                     	;# 
  1868  0291                     	;# 
  1869  0292                     	;# 
  1870  0293                     	;# 
  1871  0294                     	;# 
  1872  0295                     	;# 
  1873  0295                     	;# 
  1874  0296                     	;# 
  1875  0297                     	;# 
  1876  0298                     	;# 
  1877  0299                     	;# 
  1878  0299                     	;# 
  1879  029A                     	;# 
  1880  029B                     	;# 
  1881  029C                     	;# 
  1882  029E                     	;# 
  1883  029F                     	;# 
  1884  030C                     	;# 
  1885  030D                     	;# 
  1886  030E                     	;# 
  1887  0315                     	;# 
  1888  0316                     	;# 
  1889  0317                     	;# 
  1890  0318                     	;# 
  1891  0319                     	;# 
  1892  031B                     	;# 
  1893  031C                     	;# 
  1894  031D                     	;# 
  1895  031E                     	;# 
  1896  031F                     	;# 
  1897  038C                     	;# 
  1898  038D                     	;# 
  1899  038E                     	;# 
  1900  0390                     	;# 
  1901  0391                     	;# 
  1902  0392                     	;# 
  1903  0393                     	;# 
  1904  0394                     	;# 
  1905  0395                     	;# 
  1906  0396                     	;# 
  1907  0397                     	;# 
  1908  0398                     	;# 
  1909  0399                     	;# 
  1910  039D                     	;# 
  1911  039E                     	;# 
  1912  039F                     	;# 
  1913  040D                     	;# 
  1914  040F                     	;# 
  1915  040F                     	;# 
  1916  0410                     	;# 
  1917  0411                     	;# 
  1918  0412                     	;# 
  1919  0413                     	;# 
  1920  0413                     	;# 
  1921  0414                     	;# 
  1922  0414                     	;# 
  1923  0415                     	;# 
  1924  0416                     	;# 
  1925  0417                     	;# 
  1926  0418                     	;# 
  1927  041A                     	;# 
  1928  041A                     	;# 
  1929  041B                     	;# 
  1930  041B                     	;# 
  1931  041C                     	;# 
  1932  041D                     	;# 
  1933  041E                     	;# 
  1934  041F                     	;# 
  1935  048E                     	;# 
  1936  048E                     	;# 
  1937  048F                     	;# 
  1938  0490                     	;# 
  1939  0491                     	;# 
  1940  0492                     	;# 
  1941  0493                     	;# 
  1942  0493                     	;# 
  1943  0494                     	;# 
  1944  0494                     	;# 
  1945  0495                     	;# 
  1946  0496                     	;# 
  1947  0497                     	;# 
  1948  0498                     	;# 
  1949  049A                     	;# 
  1950  049A                     	;# 
  1951  049B                     	;# 
  1952  049B                     	;# 
  1953  049C                     	;# 
  1954  049D                     	;# 
  1955  049E                     	;# 
  1956  049F                     	;# 
  1957  050F                     	;# 
  1958  0510                     	;# 
  1959  0511                     	;# 
  1960  0512                     	;# 
  1961  0513                     	;# 
  1962  0514                     	;# 
  1963  0515                     	;# 
  1964  0516                     	;# 
  1965  0517                     	;# 
  1966  0518                     	;# 
  1967  0519                     	;# 
  1968  051A                     	;# 
  1969  058D                     	;# 
  1970  058E                     	;# 
  1971  058F                     	;# 
  1972  058F                     	;# 
  1973  058F                     	;# 
  1974  0590                     	;# 
  1975  0590                     	;# 
  1976  0591                     	;# 
  1977  0592                     	;# 
  1978  0592                     	;# 
  1979  0592                     	;# 
  1980  0593                     	;# 
  1981  0593                     	;# 
  1982  0594                     	;# 
  1983  0595                     	;# 
  1984  0595                     	;# 
  1985  0596                     	;# 
  1986  0597                     	;# 
  1987  0597                     	;# 
  1988  0598                     	;# 
  1989  0599                     	;# 
  1990  0599                     	;# 
  1991  0599                     	;# 
  1992  059A                     	;# 
  1993  059A                     	;# 
  1994  059E                     	;# 
  1995  059F                     	;# 
  1996  059F                     	;# 
  1997  0614                     	;# 
  1998  0614                     	;# 
  1999  0615                     	;# 
  2000  0616                     	;# 
  2001  0617                     	;# 
  2002  0617                     	;# 
  2003  0618                     	;# 
  2004  0619                     	;# 
  2005  061A                     	;# 
  2006  061A                     	;# 
  2007  061B                     	;# 
  2008  061C                     	;# 
  2009  068D                     	;# 
  2010  068E                     	;# 
  2011  068F                     	;# 
  2012  0690                     	;# 
  2013  0691                     	;# 
  2014  0692                     	;# 
  2015  0693                     	;# 
  2016  0694                     	;# 
  2017  0695                     	;# 
  2018  0696                     	;# 
  2019  0697                     	;# 
  2020  0698                     	;# 
  2021  0699                     	;# 
  2022  069A                     	;# 
  2023  069B                     	;# 
  2024  069C                     	;# 
  2025  069D                     	;# 
  2026  069E                     	;# 
  2027  069F                     	;# 
  2028  070D                     	;# 
  2029  070E                     	;# 
  2030  070F                     	;# 
  2031  0710                     	;# 
  2032  0711                     	;# 
  2033  0712                     	;# 
  2034  0713                     	;# 
  2035  0714                     	;# 
  2036  0715                     	;# 
  2037  0716                     	;# 
  2038  0717                     	;# 
  2039  0718                     	;# 
  2040  0719                     	;# 
  2041  071A                     	;# 
  2042  071B                     	;# 
  2043  071C                     	;# 
  2044  071D                     	;# 
  2045  071E                     	;# 
  2046  071F                     	;# 
  2047  078E                     	;# 
  2048  078F                     	;# 
  2049  0790                     	;# 
  2050  0791                     	;# 
  2051  0792                     	;# 
  2052  0793                     	;# 
  2053  0794                     	;# 
  2054  0795                     	;# 
  2055  0796                     	;# 
  2056  0797                     	;# 
  2057  0798                     	;# 
  2058  0799                     	;# 
  2059  079A                     	;# 
  2060  079B                     	;# 
  2061  079C                     	;# 
  2062  079D                     	;# 
  2063  079E                     	;# 
  2064  079F                     	;# 
  2065  080D                     	;# 
  2066  080E                     	;# 
  2067  080F                     	;# 
  2068  0810                     	;# 
  2069  0811                     	;# 
  2070  0812                     	;# 
  2071  0813                     	;# 
  2072  0814                     	;# 
  2073  0815                     	;# 
  2074  0816                     	;# 
  2075  0817                     	;# 
  2076  0818                     	;# 
  2077  0819                     	;# 
  2078  081A                     	;# 
  2079  081B                     	;# 
  2080  081C                     	;# 
  2081  081D                     	;# 
  2082  081E                     	;# 
  2083  081F                     	;# 
  2084  090C                     	;# 
  2085  090D                     	;# 
  2086  090E                     	;# 
  2087  090F                     	;# 
  2088  0910                     	;# 
  2089  0911                     	;# 
  2090  0912                     	;# 
  2091  0913                     	;# 
  2092  0914                     	;# 
  2093  0915                     	;# 
  2094  0916                     	;# 
  2095  0917                     	;# 
  2096  0D8E                     	;# 
  2097  0D8F                     	;# 
  2098  0D90                     	;# 
  2099  0D91                     	;# 
  2100  0D91                     	;# 
  2101  0D92                     	;# 
  2102  0D93                     	;# 
  2103  0D93                     	;# 
  2104  0D94                     	;# 
  2105  0D95                     	;# 
  2106  0D95                     	;# 
  2107  0D96                     	;# 
  2108  0D97                     	;# 
  2109  0D97                     	;# 
  2110  0D98                     	;# 
  2111  0D99                     	;# 
  2112  0D99                     	;# 
  2113  0D9A                     	;# 
  2114  0D9B                     	;# 
  2115  0D9C                     	;# 
  2116  0D9C                     	;# 
  2117  0D9D                     	;# 
  2118  0D9D                     	;# 
  2119  0D9E                     	;# 
  2120  0D9F                     	;# 
  2121  0DA0                     	;# 
  2122  0DA1                     	;# 
  2123  0DA1                     	;# 
  2124  0DA2                     	;# 
  2125  0DA3                     	;# 
  2126  0DA3                     	;# 
  2127  0DA4                     	;# 
  2128  0DA5                     	;# 
  2129  0DA5                     	;# 
  2130  0DA6                     	;# 
  2131  0DA7                     	;# 
  2132  0DA7                     	;# 
  2133  0DA8                     	;# 
  2134  0DA9                     	;# 
  2135  0DA9                     	;# 
  2136  0DAA                     	;# 
  2137  0DAB                     	;# 
  2138  0DAC                     	;# 
  2139  0DAC                     	;# 
  2140  0DAD                     	;# 
  2141  0DAD                     	;# 
  2142  0DAE                     	;# 
  2143  0DAF                     	;# 
  2144  0DB0                     	;# 
  2145  0DB1                     	;# 
  2146  0DB1                     	;# 
  2147  0DB2                     	;# 
  2148  0DB3                     	;# 
  2149  0DB3                     	;# 
  2150  0DB4                     	;# 
  2151  0DB5                     	;# 
  2152  0DB5                     	;# 
  2153  0DB6                     	;# 
  2154  0DB7                     	;# 
  2155  0DB7                     	;# 
  2156  0DB8                     	;# 
  2157  0DB9                     	;# 
  2158  0DB9                     	;# 
  2159  0DBA                     	;# 
  2160  0DBB                     	;# 
  2161  0DBC                     	;# 
  2162  0DBC                     	;# 
  2163  0DBD                     	;# 
  2164  0DBD                     	;# 
  2165  0DBE                     	;# 
  2166  0DBF                     	;# 
  2167  0DC0                     	;# 
  2168  0E0C                     	;# 
  2169  0E0D                     	;# 
  2170  0E0E                     	;# 
  2171  0E0F                     	;# 
  2172  0E10                     	;# 
  2173  0E11                     	;# 
  2174  0E12                     	;# 
  2175  0E13                     	;# 
  2176  0E14                     	;# 
  2177  0E15                     	;# 
  2178  0E15                     	;# 
  2179  0E15                     	;# 
  2180  0E16                     	;# 
  2181  0E16                     	;# 
  2182  0E16                     	;# 
  2183  0E17                     	;# 
  2184  0E17                     	;# 
  2185  0E17                     	;# 
  2186  0E18                     	;# 
  2187  0E18                     	;# 
  2188  0E18                     	;# 
  2189  0E19                     	;# 
  2190  0E1A                     	;# 
  2191  0E1B                     	;# 
  2192  0E1D                     	;# 
  2193  0E1E                     	;# 
  2194  0E1F                     	;# 
  2195  0E21                     	;# 
  2196  0E22                     	;# 
  2197  0E23                     	;# 
  2198  0E24                     	;# 
  2199  0E25                     	;# 
  2200  0E26                     	;# 
  2201  0E27                     	;# 
  2202  0E28                     	;# 
  2203  0E29                     	;# 
  2204  0E2D                     	;# 
  2205  0E2E                     	;# 
  2206  0E2F                     	;# 
  2207  0E30                     	;# 
  2208  0E31                     	;# 
  2209  0E32                     	;# 
  2210  0E35                     	;# 
  2211  0E36                     	;# 
  2212  0E37                     	;# 
  2213  0E38                     	;# 
  2214  0E39                     	;# 
  2215  0E3A                     	;# 
  2216  0E3B                     	;# 
  2217  0E3C                     	;# 
  2218  0E3D                     	;# 
  2219  0E3E                     	;# 
  2220  0E90                     	;# 
  2221  0E91                     	;# 
  2222  0E92                     	;# 
  2223  0E93                     	;# 
  2224  0E94                     	;# 
  2225  0E95                     	;# 
  2226  0E96                     	;# 
  2227  0E97                     	;# 
  2228  0E98                     	;# 
  2229  0E99                     	;# 
  2230  0E9A                     	;# 
  2231  0E9B                     	;# 
  2232  0E9C                     	;# 
  2233  0E9D                     	;# 
  2234  0E9E                     	;# 
  2235  0E9F                     	;# 
  2236  0EA0                     	;# 
  2237  0EA1                     	;# 
  2238  0EA2                     	;# 
  2239  0EA3                     	;# 
  2240  0EA4                     	;# 
  2241  0EA5                     	;# 
  2242  0EA6                     	;# 
  2243  0EA7                     	;# 
  2244  0F0F                     	;# 
  2245  0F10                     	;# 
  2246  0F11                     	;# 
  2247  0F12                     	;# 
  2248  0F13                     	;# 
  2249  0F14                     	;# 
  2250  0F15                     	;# 
  2251  0F16                     	;# 
  2252  0F17                     	;# 
  2253  0F18                     	;# 
  2254  0F19                     	;# 
  2255  0F1A                     	;# 
  2256  0F1B                     	;# 
  2257  0F1C                     	;# 
  2258  0F1D                     	;# 
  2259  0F1E                     	;# 
  2260  0F1F                     	;# 
  2261  0F20                     	;# 
  2262  0F21                     	;# 
  2263  0F22                     	;# 
  2264  0F23                     	;# 
  2265  0F24                     	;# 
  2266  0F25                     	;# 
  2267  0F26                     	;# 
  2268  0F27                     	;# 
  2269  0F28                     	;# 
  2270  0F29                     	;# 
  2271  0F2A                     	;# 
  2272  0F2B                     	;# 
  2273  0F2C                     	;# 
  2274  0F2D                     	;# 
  2275  0F2E                     	;# 
  2276  0F2F                     	;# 
  2277  0F30                     	;# 
  2278  0F31                     	;# 
  2279  0F32                     	;# 
  2280  0F33                     	;# 
  2281  0F34                     	;# 
  2282  0F35                     	;# 
  2283  0F36                     	;# 
  2284  0F37                     	;# 
  2285  0FE4                     	;# 
  2286  0FE5                     	;# 
  2287  0FE6                     	;# 
  2288  0FE7                     	;# 
  2289  0FE8                     	;# 
  2290  0FE9                     	;# 
  2291  0FEA                     	;# 
  2292  0FEB                     	;# 
  2293  0FED                     	;# 
  2294  0FEE                     	;# 
  2295  0FEF                     	;# 
  2296  0000                     	;# 
  2297  0001                     	;# 
  2298  0002                     	;# 
  2299  0003                     	;# 
  2300  0004                     	;# 
  2301  0005                     	;# 
  2302  0006                     	;# 
  2303  0007                     	;# 
  2304  0008                     	;# 
  2305  0009                     	;# 
  2306  000A                     	;# 
  2307  000B                     	;# 
  2308  000C                     	;# 
  2309  000D                     	;# 
  2310  000E                     	;# 
  2311  0010                     	;# 
  2312  0011                     	;# 
  2313  0012                     	;# 
  2314  0013                     	;# 
  2315  0014                     	;# 
  2316  0015                     	;# 
  2317  0016                     	;# 
  2318  0017                     	;# 
  2319  0018                     	;# 
  2320  0018                     	;# 
  2321  0019                     	;# 
  2322  001A                     	;# 
  2323  001B                     	;# 
  2324  001C                     	;# 
  2325  001C                     	;# 
  2326  001D                     	;# 
  2327  001E                     	;# 
  2328  001F                     	;# 
  2329  008C                     	;# 
  2330  008D                     	;# 
  2331  008E                     	;# 
  2332  0090                     	;# 
  2333  0091                     	;# 
  2334  0092                     	;# 
  2335  0093                     	;# 
  2336  0094                     	;# 
  2337  0095                     	;# 
  2338  0096                     	;# 
  2339  0097                     	;# 
  2340  0098                     	;# 
  2341  0099                     	;# 
  2342  009A                     	;# 
  2343  009B                     	;# 
  2344  009C                     	;# 
  2345  009D                     	;# 
  2346  009E                     	;# 
  2347  009F                     	;# 
  2348  010C                     	;# 
  2349  010D                     	;# 
  2350  010E                     	;# 
  2351  0111                     	;# 
  2352  0112                     	;# 
  2353  0113                     	;# 
  2354  0114                     	;# 
  2355  0115                     	;# 
  2356  0116                     	;# 
  2357  0117                     	;# 
  2358  0118                     	;# 
  2359  0119                     	;# 
  2360  011A                     	;# 
  2361  011B                     	;# 
  2362  011C                     	;# 
  2363  011D                     	;# 
  2364  018C                     	;# 
  2365  018D                     	;# 
  2366  018E                     	;# 
  2367  0191                     	;# 
  2368  0191                     	;# 
  2369  0192                     	;# 
  2370  0193                     	;# 
  2371  0193                     	;# 
  2372  0194                     	;# 
  2373  0195                     	;# 
  2374  0196                     	;# 
  2375  0197                     	;# 
  2376  0199                     	;# 
  2377  0199                     	;# 
  2378  0199                     	;# 
  2379  019A                     	;# 
  2380  019A                     	;# 
  2381  019A                     	;# 
  2382  019B                     	;# 
  2383  019B                     	;# 
  2384  019B                     	;# 
  2385  019B                     	;# 
  2386  019B                     	;# 
  2387  019C                     	;# 
  2388  019C                     	;# 
  2389  019C                     	;# 
  2390  019D                     	;# 
  2391  019D                     	;# 
  2392  019D                     	;# 
  2393  019E                     	;# 
  2394  019E                     	;# 
  2395  019E                     	;# 
  2396  019F                     	;# 
  2397  019F                     	;# 
  2398  019F                     	;# 
  2399  019F                     	;# 
  2400  019F                     	;# 
  2401  020C                     	;# 
  2402  020D                     	;# 
  2403  020E                     	;# 
  2404  0210                     	;# 
  2405  0211                     	;# 
  2406  0211                     	;# 
  2407  0212                     	;# 
  2408  0212                     	;# 
  2409  0213                     	;# 
  2410  0213                     	;# 
  2411  0214                     	;# 
  2412  0214                     	;# 
  2413  0215                     	;# 
  2414  0215                     	;# 
  2415  0215                     	;# 
  2416  0215                     	;# 
  2417  0216                     	;# 
  2418  0216                     	;# 
  2419  0217                     	;# 
  2420  0217                     	;# 
  2421  021B                     	;# 
  2422  021C                     	;# 
  2423  021D                     	;# 
  2424  021E                     	;# 
  2425  021F                     	;# 
  2426  028C                     	;# 
  2427  028D                     	;# 
  2428  028E                     	;# 
  2429  0291                     	;# 
  2430  0291                     	;# 
  2431  0292                     	;# 
  2432  0293                     	;# 
  2433  0294                     	;# 
  2434  0295                     	;# 
  2435  0295                     	;# 
  2436  0296                     	;# 
  2437  0297                     	;# 
  2438  0298                     	;# 
  2439  0299                     	;# 
  2440  0299                     	;# 
  2441  029A                     	;# 
  2442  029B                     	;# 
  2443  029C                     	;# 
  2444  029E                     	;# 
  2445  029F                     	;# 
  2446  030C                     	;# 
  2447  030D                     	;# 
  2448  030E                     	;# 
  2449  0315                     	;# 
  2450  0316                     	;# 
  2451  0317                     	;# 
  2452  0318                     	;# 
  2453  0319                     	;# 
  2454  031B                     	;# 
  2455  031C                     	;# 
  2456  031D                     	;# 
  2457  031E                     	;# 
  2458  031F                     	;# 
  2459  038C                     	;# 
  2460  038D                     	;# 
  2461  038E                     	;# 
  2462  0390                     	;# 
  2463  0391                     	;# 
  2464  0392                     	;# 
  2465  0393                     	;# 
  2466  0394                     	;# 
  2467  0395                     	;# 
  2468  0396                     	;# 
  2469  0397                     	;# 
  2470  0398                     	;# 
  2471  0399                     	;# 
  2472  039D                     	;# 
  2473  039E                     	;# 
  2474  039F                     	;# 
  2475  040D                     	;# 
  2476  040F                     	;# 
  2477  040F                     	;# 
  2478  0410                     	;# 
  2479  0411                     	;# 
  2480  0412                     	;# 
  2481  0413                     	;# 
  2482  0413                     	;# 
  2483  0414                     	;# 
  2484  0414                     	;# 
  2485  0415                     	;# 
  2486  0416                     	;# 
  2487  0417                     	;# 
  2488  0418                     	;# 
  2489  041A                     	;# 
  2490  041A                     	;# 
  2491  041B                     	;# 
  2492  041B                     	;# 
  2493  041C                     	;# 
  2494  041D                     	;# 
  2495  041E                     	;# 
  2496  041F                     	;# 
  2497  048E                     	;# 
  2498  048E                     	;# 
  2499  048F                     	;# 
  2500  0490                     	;# 
  2501  0491                     	;# 
  2502  0492                     	;# 
  2503  0493                     	;# 
  2504  0493                     	;# 
  2505  0494                     	;# 
  2506  0494                     	;# 
  2507  0495                     	;# 
  2508  0496                     	;# 
  2509  0497                     	;# 
  2510  0498                     	;# 
  2511  049A                     	;# 
  2512  049A                     	;# 
  2513  049B                     	;# 
  2514  049B                     	;# 
  2515  049C                     	;# 
  2516  049D                     	;# 
  2517  049E                     	;# 
  2518  049F                     	;# 
  2519  050F                     	;# 
  2520  0510                     	;# 
  2521  0511                     	;# 
  2522  0512                     	;# 
  2523  0513                     	;# 
  2524  0514                     	;# 
  2525  0515                     	;# 
  2526  0516                     	;# 
  2527  0517                     	;# 
  2528  0518                     	;# 
  2529  0519                     	;# 
  2530  051A                     	;# 
  2531  058D                     	;# 
  2532  058E                     	;# 
  2533  058F                     	;# 
  2534  058F                     	;# 
  2535  058F                     	;# 
  2536  0590                     	;# 
  2537  0590                     	;# 
  2538  0591                     	;# 
  2539  0592                     	;# 
  2540  0592                     	;# 
  2541  0592                     	;# 
  2542  0593                     	;# 
  2543  0593                     	;# 
  2544  0594                     	;# 
  2545  0595                     	;# 
  2546  0595                     	;# 
  2547  0596                     	;# 
  2548  0597                     	;# 
  2549  0597                     	;# 
  2550  0598                     	;# 
  2551  0599                     	;# 
  2552  0599                     	;# 
  2553  0599                     	;# 
  2554  059A                     	;# 
  2555  059A                     	;# 
  2556  059E                     	;# 
  2557  059F                     	;# 
  2558  059F                     	;# 
  2559  0614                     	;# 
  2560  0614                     	;# 
  2561  0615                     	;# 
  2562  0616                     	;# 
  2563  0617                     	;# 
  2564  0617                     	;# 
  2565  0618                     	;# 
  2566  0619                     	;# 
  2567  061A                     	;# 
  2568  061A                     	;# 
  2569  061B                     	;# 
  2570  061C                     	;# 
  2571  068D                     	;# 
  2572  068E                     	;# 
  2573  068F                     	;# 
  2574  0690                     	;# 
  2575  0691                     	;# 
  2576  0692                     	;# 
  2577  0693                     	;# 
  2578  0694                     	;# 
  2579  0695                     	;# 
  2580  0696                     	;# 
  2581  0697                     	;# 
  2582  0698                     	;# 
  2583  0699                     	;# 
  2584  069A                     	;# 
  2585  069B                     	;# 
  2586  069C                     	;# 
  2587  069D                     	;# 
  2588  069E                     	;# 
  2589  069F                     	;# 
  2590  070D                     	;# 
  2591  070E                     	;# 
  2592  070F                     	;# 
  2593  0710                     	;# 
  2594  0711                     	;# 
  2595  0712                     	;# 
  2596  0713                     	;# 
  2597  0714                     	;# 
  2598  0715                     	;# 
  2599  0716                     	;# 
  2600  0717                     	;# 
  2601  0718                     	;# 
  2602  0719                     	;# 
  2603  071A                     	;# 
  2604  071B                     	;# 
  2605  071C                     	;# 
  2606  071D                     	;# 
  2607  071E                     	;# 
  2608  071F                     	;# 
  2609  078E                     	;# 
  2610  078F                     	;# 
  2611  0790                     	;# 
  2612  0791                     	;# 
  2613  0792                     	;# 
  2614  0793                     	;# 
  2615  0794                     	;# 
  2616  0795                     	;# 
  2617  0796                     	;# 
  2618  0797                     	;# 
  2619  0798                     	;# 
  2620  0799                     	;# 
  2621  079A                     	;# 
  2622  079B                     	;# 
  2623  079C                     	;# 
  2624  079D                     	;# 
  2625  079E                     	;# 
  2626  079F                     	;# 
  2627  080D                     	;# 
  2628  080E                     	;# 
  2629  080F                     	;# 
  2630  0810                     	;# 
  2631  0811                     	;# 
  2632  0812                     	;# 
  2633  0813                     	;# 
  2634  0814                     	;# 
  2635  0815                     	;# 
  2636  0816                     	;# 
  2637  0817                     	;# 
  2638  0818                     	;# 
  2639  0819                     	;# 
  2640  081A                     	;# 
  2641  081B                     	;# 
  2642  081C                     	;# 
  2643  081D                     	;# 
  2644  081E                     	;# 
  2645  081F                     	;# 
  2646  090C                     	;# 
  2647  090D                     	;# 
  2648  090E                     	;# 
  2649  090F                     	;# 
  2650  0910                     	;# 
  2651  0911                     	;# 
  2652  0912                     	;# 
  2653  0913                     	;# 
  2654  0914                     	;# 
  2655  0915                     	;# 
  2656  0916                     	;# 
  2657  0917                     	;# 
  2658  0D8E                     	;# 
  2659  0D8F                     	;# 
  2660  0D90                     	;# 
  2661  0D91                     	;# 
  2662  0D91                     	;# 
  2663  0D92                     	;# 
  2664  0D93                     	;# 
  2665  0D93                     	;# 
  2666  0D94                     	;# 
  2667  0D95                     	;# 
  2668  0D95                     	;# 
  2669  0D96                     	;# 
  2670  0D97                     	;# 
  2671  0D97                     	;# 
  2672  0D98                     	;# 
  2673  0D99                     	;# 
  2674  0D99                     	;# 
  2675  0D9A                     	;# 
  2676  0D9B                     	;# 
  2677  0D9C                     	;# 
  2678  0D9C                     	;# 
  2679  0D9D                     	;# 
  2680  0D9D                     	;# 
  2681  0D9E                     	;# 
  2682  0D9F                     	;# 
  2683  0DA0                     	;# 
  2684  0DA1                     	;# 
  2685  0DA1                     	;# 
  2686  0DA2                     	;# 
  2687  0DA3                     	;# 
  2688  0DA3                     	;# 
  2689  0DA4                     	;# 
  2690  0DA5                     	;# 
  2691  0DA5                     	;# 
  2692  0DA6                     	;# 
  2693  0DA7                     	;# 
  2694  0DA7                     	;# 
  2695  0DA8                     	;# 
  2696  0DA9                     	;# 
  2697  0DA9                     	;# 
  2698  0DAA                     	;# 
  2699  0DAB                     	;# 
  2700  0DAC                     	;# 
  2701  0DAC                     	;# 
  2702  0DAD                     	;# 
  2703  0DAD                     	;# 
  2704  0DAE                     	;# 
  2705  0DAF                     	;# 
  2706  0DB0                     	;# 
  2707  0DB1                     	;# 
  2708  0DB1                     	;# 
  2709  0DB2                     	;# 
  2710  0DB3                     	;# 
  2711  0DB3                     	;# 
  2712  0DB4                     	;# 
  2713  0DB5                     	;# 
  2714  0DB5                     	;# 
  2715  0DB6                     	;# 
  2716  0DB7                     	;# 
  2717  0DB7                     	;# 
  2718  0DB8                     	;# 
  2719  0DB9                     	;# 
  2720  0DB9                     	;# 
  2721  0DBA                     	;# 
  2722  0DBB                     	;# 
  2723  0DBC                     	;# 
  2724  0DBC                     	;# 
  2725  0DBD                     	;# 
  2726  0DBD                     	;# 
  2727  0DBE                     	;# 
  2728  0DBF                     	;# 
  2729  0DC0                     	;# 
  2730  0E0C                     	;# 
  2731  0E0D                     	;# 
  2732  0E0E                     	;# 
  2733  0E0F                     	;# 
  2734  0E10                     	;# 
  2735  0E11                     	;# 
  2736  0E12                     	;# 
  2737  0E13                     	;# 
  2738  0E14                     	;# 
  2739  0E15                     	;# 
  2740  0E15                     	;# 
  2741  0E15                     	;# 
  2742  0E16                     	;# 
  2743  0E16                     	;# 
  2744  0E16                     	;# 
  2745  0E17                     	;# 
  2746  0E17                     	;# 
  2747  0E17                     	;# 
  2748  0E18                     	;# 
  2749  0E18                     	;# 
  2750  0E18                     	;# 
  2751  0E19                     	;# 
  2752  0E1A                     	;# 
  2753  0E1B                     	;# 
  2754  0E1D                     	;# 
  2755  0E1E                     	;# 
  2756  0E1F                     	;# 
  2757  0E21                     	;# 
  2758  0E22                     	;# 
  2759  0E23                     	;# 
  2760  0E24                     	;# 
  2761  0E25                     	;# 
  2762  0E26                     	;# 
  2763  0E27                     	;# 
  2764  0E28                     	;# 
  2765  0E29                     	;# 
  2766  0E2D                     	;# 
  2767  0E2E                     	;# 
  2768  0E2F                     	;# 
  2769  0E30                     	;# 
  2770  0E31                     	;# 
  2771  0E32                     	;# 
  2772  0E35                     	;# 
  2773  0E36                     	;# 
  2774  0E37                     	;# 
  2775  0E38                     	;# 
  2776  0E39                     	;# 
  2777  0E3A                     	;# 
  2778  0E3B                     	;# 
  2779  0E3C                     	;# 
  2780  0E3D                     	;# 
  2781  0E3E                     	;# 
  2782  0E90                     	;# 
  2783  0E91                     	;# 
  2784  0E92                     	;# 
  2785  0E93                     	;# 
  2786  0E94                     	;# 
  2787  0E95                     	;# 
  2788  0E96                     	;# 
  2789  0E97                     	;# 
  2790  0E98                     	;# 
  2791  0E99                     	;# 
  2792  0E9A                     	;# 
  2793  0E9B                     	;# 
  2794  0E9C                     	;# 
  2795  0E9D                     	;# 
  2796  0E9E                     	;# 
  2797  0E9F                     	;# 
  2798  0EA0                     	;# 
  2799  0EA1                     	;# 
  2800  0EA2                     	;# 
  2801  0EA3                     	;# 
  2802  0EA4                     	;# 
  2803  0EA5                     	;# 
  2804  0EA6                     	;# 
  2805  0EA7                     	;# 
  2806  0F0F                     	;# 
  2807  0F10                     	;# 
  2808  0F11                     	;# 
  2809  0F12                     	;# 
  2810  0F13                     	;# 
  2811  0F14                     	;# 
  2812  0F15                     	;# 
  2813  0F16                     	;# 
  2814  0F17                     	;# 
  2815  0F18                     	;# 
  2816  0F19                     	;# 
  2817  0F1A                     	;# 
  2818  0F1B                     	;# 
  2819  0F1C                     	;# 
  2820  0F1D                     	;# 
  2821  0F1E                     	;# 
  2822  0F1F                     	;# 
  2823  0F20                     	;# 
  2824  0F21                     	;# 
  2825  0F22                     	;# 
  2826  0F23                     	;# 
  2827  0F24                     	;# 
  2828  0F25                     	;# 
  2829  0F26                     	;# 
  2830  0F27                     	;# 
  2831  0F28                     	;# 
  2832  0F29                     	;# 
  2833  0F2A                     	;# 
  2834  0F2B                     	;# 
  2835  0F2C                     	;# 
  2836  0F2D                     	;# 
  2837  0F2E                     	;# 
  2838  0F2F                     	;# 
  2839  0F30                     	;# 
  2840  0F31                     	;# 
  2841  0F32                     	;# 
  2842  0F33                     	;# 
  2843  0F34                     	;# 
  2844  0F35                     	;# 
  2845  0F36                     	;# 
  2846  0F37                     	;# 
  2847  0FE4                     	;# 
  2848  0FE5                     	;# 
  2849  0FE6                     	;# 
  2850  0FE7                     	;# 
  2851  0FE8                     	;# 
  2852  0FE9                     	;# 
  2853  0FEA                     	;# 
  2854  0FEB                     	;# 
  2855  0FED                     	;# 
  2856  0FEE                     	;# 
  2857  0FEF                     	;# 
  2858  0011                     _PIR1bits	set	17
  2859  000E                     _PORTC	set	14
  2860  000D                     _PORTB	set	13
  2861  000C                     _PORTA	set	12
  2862  000C                     _PORTAbits	set	12
  2863  0097                     _OPTION_REGbits	set	151
  2864  008D                     _TRISBbits	set	141
  2865  008E                     _TRISCbits	set	142
  2866  008D                     _TRISB	set	141
  2867  008E                     _TRISC	set	142
  2868  008C                     _TRISA	set	140
  2869  009B                     _OSCCONbits	set	155
  2870  010E                     _LATC	set	270
  2871  010D                     _LATB	set	269
  2872  010C                     _LATA	set	268
  2873  010C                     _LATAbits	set	268
  2874  018E                     _ANSELC	set	398
  2875  018D                     _ANSELB	set	397
  2876  018C                     _ANSELA	set	396
  2877  020E                     _WPUC	set	526
  2878  020C                     _WPUA	set	524
  2879  020D                     _WPUB	set	525
  2880  0210                     _WPUE	set	528
  2881  0295                     _CCPR2	set	661
  2882  0291                     _CCPR1	set	657
  2883  028E                     _ODCONC	set	654
  2884  028D                     _ODCONB	set	653
  2885  028C                     _ODCONA	set	652
  2886  029E                     _CCPTMRS1bits	set	670
  2887  0299                     _CCPR7L	set	665
  2888  029A                     _CCPR7H	set	666
  2889  029B                     _CCP7CONbits	set	667
  2890  0297                     _CCP2CONbits	set	663
  2891  0293                     _CCP1CONbits	set	659
  2892  030E                     _SLRCONC	set	782
  2893  030D                     _SLRCONB	set	781
  2894  030C                     _SLRCONA	set	780
  2895  038E                     _INLVLC	set	910
  2896  038D                     _INLVLB	set	909
  2897  038C                     _INLVLA	set	908
  2898  0495                     _T2CONbits	set	1173
  2899  0497                     _T2CLKCONbits	set	1175
  2900  0494                     _T2PR	set	1172
  2901  0E9B                     _RB3PPS	set	3739
  2902  0EA1                     _RC1PPS	set	3745
  2903  0E9D                     _RB5PPS	set	3741
  2904  0E97                     _RA7PPS	set	3735
  2905                           
  2906                           ; #config settings
  2907  0000                     
  2908                           	psect	cinit
  2909  000A                     start_initialization:	
  2910  000A                     __initialization:	
  2911  000A                     end_of_initialization:	
  2912                           ;End of C runtime variable initialization code
  2913                           
  2914  000A                     __end_of__initialization:	
  2915  000A  107E               	bcf	int$flags,0	;clear compiler interrupt flag (level 1)
  2916  000B  0020               	movlb	0
  2917  000C  3180  2842         	ljmp	_main	;jump to C main() function
  2918                           
  2919                           	psect	cstackCOMMON
  2920  0070                     __pcstackCOMMON:	
  2921  0070                     ?_ConfigureOscillator:	
  2922  0070                     ??_ConfigureOscillator:	
  2923                           ; 1 bytes @ 0x0
  2924                           
  2925  0070                     ?_InitApp:	
  2926                           ; 1 bytes @ 0x0
  2927                           
  2928  0070                     ??_InitApp:	
  2929                           ; 1 bytes @ 0x0
  2930                           
  2931  0070                     ?_CCP_Config:	
  2932                           ; 1 bytes @ 0x0
  2933                           
  2934  0070                     ??_CCP_Config:	
  2935                           ; 1 bytes @ 0x0
  2936                           
  2937  0070                     ?_PWM_Config:	
  2938                           ; 1 bytes @ 0x0
  2939                           
  2940  0070                     ??_PWM_Config:	
  2941                           ; 1 bytes @ 0x0
  2942                           
  2943  0070                     ?_isr:	
  2944                           ; 1 bytes @ 0x0
  2945                           
  2946  0070                     ??_isr:	
  2947                           ; 1 bytes @ 0x0
  2948                           
  2949  0070                     ?_main:	
  2950                           ; 1 bytes @ 0x0
  2951                           
  2952  0070                     ??_main:	
  2953                           ; 1 bytes @ 0x0
  2954                           
  2955                           
  2956                           ; 1 bytes @ 0x0
  2957  0070                     	ds	2
  2958                           
  2959                           	psect	maintext
  2960  0042                     __pmaintext:	
  2961 ;;
  2962 ;;Main: autosize = 0, tempsize = 2, incstack = 0, save=0
  2963 ;;
  2964 ;; *************** function _main *****************
  2965 ;; Defined at:
  2966 ;;		line 29 in file "main.c"
  2967 ;; Parameters:    Size  Location     Type
  2968 ;;		None
  2969 ;; Auto vars:     Size  Location     Type
  2970 ;;		None
  2971 ;; Return value:  Size  Location     Type
  2972 ;;                  1    wreg      void 
  2973 ;; Registers used:
  2974 ;;		wreg, status,2, status,0, pclath, cstack
  2975 ;; Tracked objects:
  2976 ;;		On entry : B1F/0
  2977 ;;		On exit  : 0/0
  2978 ;;		Unchanged: 0/0
  2979 ;; Data sizes:     COMMON   BANK0   BANK1   BANK2   BANK3   BANK4   BANK5   BANK6   BANK7   BANK8   BANK9  BANK10  BANK1
      +1  BANK12
  2980 ;;      Params:         0       0       0       0       0       0       0       0       0       0       0       0       
      +0       0
  2981 ;;      Locals:         0       0       0       0       0       0       0       0       0       0       0       0       
      +0       0
  2982 ;;      Temps:          2       0       0       0       0       0       0       0       0       0       0       0       
      +0       0
  2983 ;;      Totals:         2       0       0       0       0       0       0       0       0       0       0       0       
      +0       0
  2984 ;;Total ram usage:        2 bytes
  2985 ;; Hardware stack levels required when called:    3
  2986 ;; This function calls:
  2987 ;;		_ConfigureOscillator
  2988 ;;		_InitApp
  2989 ;; This function is called by:
  2990 ;;		Startup code after reset
  2991 ;; This function uses a non-reentrant model
  2992 ;;
  2993                           
  2994                           
  2995                           ;psect for function _main
  2996  0042                     _main:	
  2997  0042                     l764:	
  2998                           ;incstack = 0
  2999                           ; Regs used in _main: [wreg+status,2+status,0+pclath+cstack]
  3000                           
  3001                           
  3002                           ;main.c: 32: ConfigureOscillator();
  3003  0042  3180  2076  3180   	fcall	_ConfigureOscillator
  3004                           
  3005                           ;main.c: 35: InitApp();
  3006  0045  3180  2063  3180   	fcall	_InitApp
  3007  0048                     l766:	
  3008                           
  3009                           ;main.c: 39: {;main.c: 42: _delay((unsigned long)((250)*(32000000/4000.0)));
  3010  0048  300B               	movlw	11
  3011  0049  00F1               	movwf	??_main+1
  3012  004A  3026               	movlw	38
  3013  004B  00F0               	movwf	??_main
  3014  004C  305E               	movlw	94
  3015  004D                     u37:	
  3016  004D  0B89               	decfsz	9,f
  3017  004E  284D               	goto	u37
  3018  004F  0BF0               	decfsz	??_main,f
  3019  0050  284D               	goto	u37
  3020  0051  0BF1               	decfsz	??_main+1,f
  3021  0052  284D               	goto	u37
  3022  0053                     l768:	
  3023                           
  3024                           ;main.c: 43: __nop();
  3025  0053  0000               	nop
  3026  0054                     l770:	
  3027                           
  3028                           ;main.c: 44: LATAbits.LATA0=!PORTAbits.RA0;
  3029  0054  1003               	clrc
  3030  0055  0020               	movlb	0	; select bank0
  3031  0056  1C0C               	btfss	12,0	;volatile
  3032  0057  1403               	setc
  3033  0058  1803               	btfsc	3,0
  3034  0059  285B               	goto	u11
  3035  005A  285E               	goto	u10
  3036  005B                     u11:	
  3037  005B  0022               	movlb	2	; select bank2
  3038  005C  140C               	bsf	12,0	;volatile
  3039  005D  2860               	goto	u24
  3040  005E                     u10:	
  3041  005E  0022               	movlb	2	; select bank2
  3042  005F  100C               	bcf	12,0	;volatile
  3043  0060                     u24:	
  3044  0060  2848               	goto	l766
  3045  0061  3180  2808         	ljmp	start
  3046  0063                     __end_of_main:	
  3047                           
  3048                           	psect	text1
  3049  0063                     __ptext1:	
  3050 ;; *************** function _InitApp *****************
  3051 ;; Defined at:
  3052 ;;		line 24 in file "user.c"
  3053 ;; Parameters:    Size  Location     Type
  3054 ;;		None
  3055 ;; Auto vars:     Size  Location     Type
  3056 ;;		None
  3057 ;; Return value:  Size  Location     Type
  3058 ;;                  1    wreg      void 
  3059 ;; Registers used:
  3060 ;;		wreg, status,2, status,0, pclath, cstack
  3061 ;; Tracked objects:
  3062 ;;		On entry : 0/0
  3063 ;;		On exit  : 0/0
  3064 ;;		Unchanged: 0/0
  3065 ;; Data sizes:     COMMON   BANK0   BANK1   BANK2   BANK3   BANK4   BANK5   BANK6   BANK7   BANK8   BANK9  BANK10  BANK1
      +1  BANK12
  3066 ;;      Params:         0       0       0       0       0       0       0       0       0       0       0       0       
      +0       0
  3067 ;;      Locals:         0       0       0       0       0       0       0       0       0       0       0       0       
      +0       0
  3068 ;;      Temps:          0       0       0       0       0       0       0       0       0       0       0       0       
      +0       0
  3069 ;;      Totals:         0       0       0       0       0       0       0       0       0       0       0       0       
      +0       0
  3070 ;;Total ram usage:        0 bytes
  3071 ;; Hardware stack levels used:    1
  3072 ;; Hardware stack levels required when called:    2
  3073 ;; This function calls:
  3074 ;;		_CCP_Config
  3075 ;;		_PWM_Config
  3076 ;; This function is called by:
  3077 ;;		_main
  3078 ;; This function uses a non-reentrant model
  3079 ;;
  3080                           
  3081                           
  3082                           ;psect for function _InitApp
  3083  0063                     _InitApp:	
  3084  0063                     l758:	
  3085                           ;incstack = 0
  3086                           ; Regs used in _InitApp: [wreg+status,2+status,0+pclath+cstack]
  3087                           
  3088                           
  3089                           ;user.c: 27: PORTA = PORTB = PORTC = 0;
  3090  0063  0020               	movlb	0	; select bank0
  3091  0064  018E               	clrf	14	;volatile
  3092  0065  018D               	clrf	13	;volatile
  3093  0066  018C               	clrf	12	;volatile
  3094                           
  3095                           ;user.c: 31: ANSELA = 0;
  3096  0067  0023               	movlb	3	; select bank3
  3097  0068  018C               	clrf	12	;volatile
  3098                           
  3099                           ;user.c: 32: ANSELB = 0;
  3100  0069  018D               	clrf	13	;volatile
  3101                           
  3102                           ;user.c: 33: ANSELC = 0;
  3103  006A  018E               	clrf	14	;volatile
  3104                           
  3105                           ;user.c: 35: TRISA=TRISC = TRISB = 0x00;
  3106  006B  0021               	movlb	1	; select bank1
  3107  006C  018D               	clrf	13	;volatile
  3108  006D  018E               	clrf	14	;volatile
  3109  006E  018C               	clrf	12	;volatile
  3110  006F                     l760:	
  3111                           
  3112                           ;user.c: 42: void PIN_MANAGER_Initialize();;user.c: 43: CCP_Config();
  3113  006F  3180  200E  3180   	fcall	_CCP_Config
  3114  0072                     l762:	
  3115                           
  3116                           ;user.c: 44: PWM_Config();
  3117  0072  3180  207F  3180   	fcall	_PWM_Config
  3118  0075                     l127:	
  3119  0075  0008               	return
  3120  0076                     __end_of_InitApp:	
  3121                           
  3122                           	psect	text2
  3123  007F                     __ptext2:	
  3124 ;; *************** function _PWM_Config *****************
  3125 ;; Defined at:
  3126 ;;		line 124 in file "user.c"
  3127 ;; Parameters:    Size  Location     Type
  3128 ;;		None
  3129 ;; Auto vars:     Size  Location     Type
  3130 ;;		None
  3131 ;; Return value:  Size  Location     Type
  3132 ;;                  1    wreg      void 
  3133 ;; Registers used:
  3134 ;;		None
  3135 ;; Tracked objects:
  3136 ;;		On entry : 0/0
  3137 ;;		On exit  : 0/0
  3138 ;;		Unchanged: 0/0
  3139 ;; Data sizes:     COMMON   BANK0   BANK1   BANK2   BANK3   BANK4   BANK5   BANK6   BANK7   BANK8   BANK9  BANK10  BANK1
      +1  BANK12
  3140 ;;      Params:         0       0       0       0       0       0       0       0       0       0       0       0       
      +0       0
  3141 ;;      Locals:         0       0       0       0       0       0       0       0       0       0       0       0       
      +0       0
  3142 ;;      Temps:          0       0       0       0       0       0       0       0       0       0       0       0       
      +0       0
  3143 ;;      Totals:         0       0       0       0       0       0       0       0       0       0       0       0       
      +0       0
  3144 ;;Total ram usage:        0 bytes
  3145 ;; Hardware stack levels used:    1
  3146 ;; Hardware stack levels required when called:    1
  3147 ;; This function calls:
  3148 ;;		Nothing
  3149 ;; This function is called by:
  3150 ;;		_InitApp
  3151 ;; This function uses a non-reentrant model
  3152 ;;
  3153                           
  3154                           
  3155                           ;psect for function _PWM_Config
  3156  007F                     _PWM_Config:	
  3157  007F                     l133:	
  3158                           ;incstack = 0
  3159                           ; Regs used in _PWM_Config: []
  3160                           
  3161  007F  0008               	return
  3162  0080                     __end_of_PWM_Config:	
  3163                           
  3164                           	psect	text3
  3165  000E                     __ptext3:	
  3166 ;; *************** function _CCP_Config *****************
  3167 ;; Defined at:
  3168 ;;		line 47 in file "user.c"
  3169 ;; Parameters:    Size  Location     Type
  3170 ;;		None
  3171 ;; Auto vars:     Size  Location     Type
  3172 ;;		None
  3173 ;; Return value:  Size  Location     Type
  3174 ;;                  1    wreg      void 
  3175 ;; Registers used:
  3176 ;;		wreg, status,2, status,0
  3177 ;; Tracked objects:
  3178 ;;		On entry : 0/0
  3179 ;;		On exit  : 0/0
  3180 ;;		Unchanged: 0/0
  3181 ;; Data sizes:     COMMON   BANK0   BANK1   BANK2   BANK3   BANK4   BANK5   BANK6   BANK7   BANK8   BANK9  BANK10  BANK1
      +1  BANK12
  3182 ;;      Params:         0       0       0       0       0       0       0       0       0       0       0       0       
      +0       0
  3183 ;;      Locals:         0       0       0       0       0       0       0       0       0       0       0       0       
      +0       0
  3184 ;;      Temps:          0       0       0       0       0       0       0       0       0       0       0       0       
      +0       0
  3185 ;;      Totals:         0       0       0       0       0       0       0       0       0       0       0       0       
      +0       0
  3186 ;;Total ram usage:        0 bytes
  3187 ;; Hardware stack levels used:    1
  3188 ;; Hardware stack levels required when called:    1
  3189 ;; This function calls:
  3190 ;;		Nothing
  3191 ;; This function is called by:
  3192 ;;		_InitApp
  3193 ;; This function uses a non-reentrant model
  3194 ;;
  3195                           
  3196                           
  3197                           ;psect for function _CCP_Config
  3198  000E                     _CCP_Config:	
  3199  000E                     l710:	
  3200                           ;incstack = 0
  3201                           ; Regs used in _CCP_Config: [wreg+status,2+status,0]
  3202                           
  3203                           
  3204                           ;user.c: 56: TRISCbits.TRISC2=1;
  3205  000E  0021               	movlb	1	; select bank1
  3206  000F  150E               	bsf	14,2	;volatile
  3207                           
  3208                           ;user.c: 57: TRISCbits.TRISC1=1;
  3209  0010  148E               	bsf	14,1	;volatile
  3210                           
  3211                           ;user.c: 58: TRISBbits.TRISB5=1;
  3212  0011  168D               	bsf	13,5	;volatile
  3213  0012                     l712:	
  3214                           
  3215                           ;user.c: 65: T2PR = 250;
  3216  0012  30FA               	movlw	250
  3217  0013  0029               	movlb	9	; select bank9
  3218  0014  0094               	movwf	20	;volatile
  3219  0015                     l714:	
  3220                           
  3221                           ;user.c: 68: CCP1CONbits.CCP1MODE = 0xF;
  3222  0015  300F               	movlw	15
  3223  0016  0025               	movlb	5	; select bank5
  3224  0017  0493               	iorwf	19,f	;volatile
  3225  0018                     l716:	
  3226                           
  3227                           ;user.c: 69: CCP2CONbits.CCP2MODE = 0xF;
  3228  0018  300F               	movlw	15
  3229  0019  0497               	iorwf	23,f	;volatile
  3230  001A                     l718:	
  3231                           
  3232                           ;user.c: 70: CCP7CONbits.CCP7MODE = 0xF;
  3233  001A  300F               	movlw	15
  3234  001B  049B               	iorwf	27,f	;volatile
  3235  001C                     l720:	
  3236                           
  3237                           ;user.c: 74: CCPR1 = 510;
  3238  001C  3001               	movlw	1
  3239  001D  0092               	movwf	18	;volatile
  3240  001E  30FE               	movlw	254
  3241  001F  0091               	movwf	17	;volatile
  3242  0020                     l722:	
  3243                           
  3244                           ;user.c: 75: CCPR2 = 510;
  3245  0020  3001               	movlw	1
  3246  0021  0096               	movwf	22	;volatile
  3247  0022  30FE               	movlw	254
  3248  0023  0095               	movwf	21	;volatile
  3249  0024                     l724:	
  3250                           
  3251                           ;user.c: 78: CCPR7H = 0x01;
  3252  0024  3001               	movlw	1
  3253  0025  009A               	movwf	26	;volatile
  3254  0026                     l726:	
  3255                           
  3256                           ;user.c: 81: CCPR7L = 0xFF;
  3257  0026  30FF               	movlw	255
  3258  0027  0099               	movwf	25	;volatile
  3259  0028                     l728:	
  3260                           
  3261                           ;user.c: 90: T2CLKCONbits.T2CS = 0b0001;
  3262  0028  0029               	movlb	9	; select bank9
  3263  0029  0817               	movf	23,w	;volatile
  3264  002A  39F0               	andlw	-16
  3265  002B  3801               	iorlw	1
  3266  002C  0097               	movwf	23	;volatile
  3267  002D                     l730:	
  3268                           
  3269                           ;user.c: 91: PIR1bits.TMR2IF = 0;
  3270  002D  0020               	movlb	0	; select bank0
  3271  002E  1091               	bcf	17,1	;volatile
  3272  002F                     l732:	
  3273                           
  3274                           ;user.c: 92: T2CONbits.CKPS = 0;
  3275  002F  308F               	movlw	-113
  3276  0030  0029               	movlb	9	; select bank9
  3277  0031  0595               	andwf	21,f	;volatile
  3278  0032                     l734:	
  3279                           
  3280                           ;user.c: 93: T2CONbits.ON = 1;
  3281  0032  1795               	bsf	21,7	;volatile
  3282  0033                     l736:	
  3283                           
  3284                           ;user.c: 101: TRISCbits.TRISC2=0;
  3285  0033  0021               	movlb	1	; select bank1
  3286  0034  110E               	bcf	14,2	;volatile
  3287  0035                     l738:	
  3288                           
  3289                           ;user.c: 102: TRISCbits.TRISC1=0;
  3290  0035  108E               	bcf	14,1	;volatile
  3291  0036                     l740:	
  3292                           
  3293                           ;user.c: 103: TRISBbits.TRISB5=0;
  3294  0036  128D               	bcf	13,5	;volatile
  3295  0037                     l742:	
  3296                           
  3297                           ;user.c: 105: CCPTMRS1bits.C1TSEL = 0x0;
  3298  0037  30FC               	movlw	-4
  3299  0038  0025               	movlb	5	; select bank5
  3300  0039  059E               	andwf	30,f	;volatile
  3301  003A                     l744:	
  3302                           
  3303                           ;user.c: 106: CCPTMRS1bits.C2TSEL = 0x0;
  3304  003A  30F3               	movlw	-13
  3305  003B  059E               	andwf	30,f	;volatile
  3306  003C                     l746:	
  3307                           
  3308                           ;user.c: 107: CCPTMRS1bits.C7TSEL = 0x0;
  3309  003C  30CF               	movlw	-49
  3310  003D  059E               	andwf	30,f	;volatile
  3311  003E                     l748:	
  3312                           
  3313                           ;user.c: 115: CCP1CONbits.CCP1EN = 1;
  3314  003E  1793               	bsf	19,7	;volatile
  3315  003F                     l750:	
  3316                           
  3317                           ;user.c: 116: CCP2CONbits.CCP2EN = 1;
  3318  003F  1797               	bsf	23,7	;volatile
  3319  0040                     l752:	
  3320                           
  3321                           ;user.c: 117: CCP7CONbits.CCP7EN = 1;
  3322  0040  179B               	bsf	27,7	;volatile
  3323  0041                     l130:	
  3324  0041  0008               	return
  3325  0042                     __end_of_CCP_Config:	
  3326                           
  3327                           	psect	text4
  3328  0076                     __ptext4:	
  3329 ;; *************** function _ConfigureOscillator *****************
  3330 ;; Defined at:
  3331 ;;		line 18 in file "system.c"
  3332 ;; Parameters:    Size  Location     Type
  3333 ;;		None
  3334 ;; Auto vars:     Size  Location     Type
  3335 ;;		None
  3336 ;; Return value:  Size  Location     Type
  3337 ;;                  1    wreg      void 
  3338 ;; Registers used:
  3339 ;;		wreg, status,2, status,0
  3340 ;; Tracked objects:
  3341 ;;		On entry : 0/0
  3342 ;;		On exit  : 0/0
  3343 ;;		Unchanged: 0/0
  3344 ;; Data sizes:     COMMON   BANK0   BANK1   BANK2   BANK3   BANK4   BANK5   BANK6   BANK7   BANK8   BANK9  BANK10  BANK1
      +1  BANK12
  3345 ;;      Params:         0       0       0       0       0       0       0       0       0       0       0       0       
      +0       0
  3346 ;;      Locals:         0       0       0       0       0       0       0       0       0       0       0       0       
      +0       0
  3347 ;;      Temps:          0       0       0       0       0       0       0       0       0       0       0       0       
      +0       0
  3348 ;;      Totals:         0       0       0       0       0       0       0       0       0       0       0       0       
      +0       0
  3349 ;;Total ram usage:        0 bytes
  3350 ;; Hardware stack levels used:    1
  3351 ;; Hardware stack levels required when called:    1
  3352 ;; This function calls:
  3353 ;;		Nothing
  3354 ;; This function is called by:
  3355 ;;		_main
  3356 ;; This function uses a non-reentrant model
  3357 ;;
  3358                           
  3359                           
  3360                           ;psect for function _ConfigureOscillator
  3361  0076                     _ConfigureOscillator:	
  3362  0076                     l754:	
  3363                           ;incstack = 0
  3364                           ; Regs used in _ConfigureOscillator: [wreg+status,2+status,0]
  3365                           
  3366                           
  3367                           ;system.c: 24: OSCCONbits.IRCF=0b1110;
  3368  0076  0021               	movlb	1	; select bank1
  3369  0077  081B               	movf	27,w	;volatile
  3370  0078  3987               	andlw	-121
  3371  0079  3870               	iorlw	112
  3372  007A  009B               	movwf	27	;volatile
  3373  007B                     l756:	
  3374                           
  3375                           ;system.c: 25: OSCCONbits.SPLLEN=1;
  3376  007B  179B               	bsf	27,7	;volatile
  3377                           
  3378                           ;system.c: 26: OSCCONbits.SCS=0b00;
  3379  007C  30FC               	movlw	-4
  3380  007D  059B               	andwf	27,f	;volatile
  3381  007E                     l30:	
  3382  007E  0008               	return
  3383  007F                     __end_of_ConfigureOscillator:	
  3384                           
  3385                           	psect	intentry
  3386  0004                     __pintentry:	
  3387 ;; *************** function _isr *****************
  3388 ;; Defined at:
  3389 ;;		line 23 in file "interrupts.c"
  3390 ;; Parameters:    Size  Location     Type
  3391 ;;		None
  3392 ;; Auto vars:     Size  Location     Type
  3393 ;;		None
  3394 ;; Return value:  Size  Location     Type
  3395 ;;                  1    wreg      void 
  3396 ;; Registers used:
  3397 ;;		None
  3398 ;; Tracked objects:
  3399 ;;		On entry : 0/0
  3400 ;;		On exit  : 0/0
  3401 ;;		Unchanged: 0/0
  3402 ;; Data sizes:     COMMON   BANK0   BANK1   BANK2   BANK3   BANK4   BANK5   BANK6   BANK7   BANK8   BANK9  BANK10  BANK1
      +1  BANK12
  3403 ;;      Params:         0       0       0       0       0       0       0       0       0       0       0       0       
      +0       0
  3404 ;;      Locals:         0       0       0       0       0       0       0       0       0       0       0       0       
      +0       0
  3405 ;;      Temps:          0       0       0       0       0       0       0       0       0       0       0       0       
      +0       0
  3406 ;;      Totals:         0       0       0       0       0       0       0       0       0       0       0       0       
      +0       0
  3407 ;;Total ram usage:        0 bytes
  3408 ;; Hardware stack levels used:    1
  3409 ;; This function calls:
  3410 ;;		Nothing
  3411 ;; This function is called by:
  3412 ;;		Interrupt level 1
  3413 ;; This function uses a non-reentrant model
  3414 ;;
  3415                           
  3416  0004                     _isr:	
  3417                           
  3418                           ;incstack = 0
  3419  0004  147E               	bsf	int$flags,0	;set compiler interrupt flag (level 1)
  3420                           
  3421                           ; Regs used in _isr: []
  3422  0005  3180               	pagesel	$
  3423  0006                     i1l5:	
  3424  0006  107E               	bcf	int$flags,0	;clear compiler interrupt flag (level 1)
  3425  0007  0009               	retfie
  3426  0008                     __end_of_isr:	
  3427  007E                     btemp	set	126	;btemp
  3428  007E                     int$flags	set	126
  3429  007E                     wtemp0	set	126


Data Sizes:
    Strings     0
    Constant    0
    Data        0
    BSS         0
    Persistent  32
    Stack       0

Auto Spaces:
    Space          Size  Autos    Used
    COMMON           14      2       2
    BANK0            80      0       0
    BANK1            80      0       0
    BANK2            80      0       0
    BANK3            80      0       0
    BANK4            80      0       0
    BANK5            80      0       0
    BANK6            80      0       0
    BANK7            80      0       0
    BANK8            80      0       0
    BANK9            80      0       0
    BANK10           80      0       0
    BANK11           80      0       0
    BANK12           48      0       0

Pointer List with Targets:

    None.

Critical Paths under _main in COMMON

    None.

Critical Paths under _isr in COMMON

    None.

Critical Paths under _main in BANK0

    None.

Critical Paths under _isr in BANK0

    None.

Critical Paths under _main in BANK1

    None.

Critical Paths under _isr in BANK1

    None.

Critical Paths under _main in BANK2

    None.

Critical Paths under _isr in BANK2

    None.

Critical Paths under _main in BANK3

    None.

Critical Paths under _isr in BANK3

    None.

Critical Paths under _main in BANK4

    None.

Critical Paths under _isr in BANK4

    None.

Critical Paths under _main in BANK5

    None.

Critical Paths under _isr in BANK5

    None.

Critical Paths under _main in BANK6

    None.

Critical Paths under _isr in BANK6

    None.

Critical Paths under _main in BANK7

    None.

Critical Paths under _isr in BANK7

    None.

Critical Paths under _main in BANK8

    None.

Critical Paths under _isr in BANK8

    None.

Critical Paths under _main in BANK9

    None.

Critical Paths under _isr in BANK9

    None.

Critical Paths under _main in BANK10

    None.

Critical Paths under _isr in BANK10

    None.

Critical Paths under _main in BANK11

    None.

Critical Paths under _isr in BANK11

    None.

Critical Paths under _main in BANK12

    None.

Critical Paths under _isr in BANK12

    None.

Call Graph Tables:

 ---------------------------------------------------------------------------------
 (Depth) Function   	        Calls       Base Space   Used Autos Params    Refs
 ---------------------------------------------------------------------------------
 (0) _main                                                 2     2      0       0
                                              0 COMMON     2     2      0
                _ConfigureOscillator
                            _InitApp
 ---------------------------------------------------------------------------------
 (1) _InitApp                                              0     0      0       0
                         _CCP_Config
                         _PWM_Config
 ---------------------------------------------------------------------------------
 (2) _PWM_Config                                           0     0      0       0
 ---------------------------------------------------------------------------------
 (2) _CCP_Config                                           0     0      0       0
 ---------------------------------------------------------------------------------
 (1) _ConfigureOscillator                                  0     0      0       0
 ---------------------------------------------------------------------------------
 Estimated maximum stack depth 2
 ---------------------------------------------------------------------------------
 (Depth) Function   	        Calls       Base Space   Used Autos Params    Refs
 ---------------------------------------------------------------------------------
 (3) _isr                                                  0     0      0       0
 ---------------------------------------------------------------------------------
 Estimated maximum stack depth 3
 ---------------------------------------------------------------------------------

 Call Graph Graphs:

 _main (ROOT)
   _ConfigureOscillator
   _InitApp
     _CCP_Config
     _PWM_Config

 _isr (ROOT)

 Address spaces:
Name               Size   Autos  Total    Cost      Usage
BIGRAM             3F0      0       0       0        0.0%
NULL                 0      0       0       0        0.0%
CODE                 0      0       0       0        0.0%
BITCOMMON            E      0       0       1        0.0%
BITSFR0              0      0       0       1        0.0%
SFR0                 0      0       0       1        0.0%
COMMON               E      2       2       2       14.3%
BITSFR1              0      0       0       2        0.0%
SFR1                 0      0       0       2        0.0%
BITSFR2              0      0       0       3        0.0%
SFR2                 0      0       0       3        0.0%
STACK                0      0       0       3        0.0%
BITBANK0            50      0       0       4        0.0%
BITSFR3              0      0       0       4        0.0%
SFR3                 0      0       0       4        0.0%
BANK0               50      0       0       5        0.0%
BITSFR4              0      0       0       5        0.0%
SFR4                 0      0       0       5        0.0%
BITBANK1            50      0       0       6        0.0%
BITSFR5              0      0       0       6        0.0%
SFR5                 0      0       0       6        0.0%
BANK1               50      0       0       7        0.0%
BITSFR6              0      0       0       7        0.0%
SFR6                 0      0       0       7        0.0%
BITBANK2            50      0       0       8        0.0%
BITSFR7              0      0       0       8        0.0%
SFR7                 0      0       0       8        0.0%
BANK2               50      0       0       9        0.0%
BITSFR8              0      0       0       9        0.0%
SFR8                 0      0       0       9        0.0%
BITBANK3            50      0       0      10        0.0%
BITSFR9              0      0       0      10        0.0%
SFR9                 0      0       0      10        0.0%
BANK3               50      0       0      11        0.0%
BITSFR10             0      0       0      11        0.0%
SFR10                0      0       0      11        0.0%
BITBANK4            50      0       0      12        0.0%
BITSFR11             0      0       0      12        0.0%
SFR11                0      0       0      12        0.0%
BANK4               50      0       0      13        0.0%
BITSFR12             0      0       0      13        0.0%
SFR12                0      0       0      13        0.0%
BITBANK5            50      0       0      14        0.0%
BITSFR13             0      0       0      14        0.0%
SFR13                0      0       0      14        0.0%
BANK5               50      0       0      15        0.0%
BITSFR14             0      0       0      15        0.0%
SFR14                0      0       0      15        0.0%
BITBANK6            50      0       0      16        0.0%
BITSFR15             0      0       0      16        0.0%
SFR15                0      0       0      16        0.0%
BANK6               50      0       0      17        0.0%
BITSFR16             0      0       0      17        0.0%
SFR16                0      0       0      17        0.0%
BITBANK7            50      0       0      18        0.0%
BITSFR17             0      0       0      18        0.0%
SFR17                0      0       0      18        0.0%
BANK7               50      0       0      19        0.0%
BITSFR18             0      0       0      19        0.0%
SFR18                0      0       0      19        0.0%
BITSFR19             0      0       0      20        0.0%
SFR19                0      0       0      20        0.0%
ABS                  0      0       0      20        0.0%
BITBANK8            50      0       0      21        0.0%
BITSFR20             0      0       0      21        0.0%
SFR20                0      0       0      21        0.0%
BANK8               50      0       0      22        0.0%
BITSFR21             0      0       0      22        0.0%
SFR21                0      0       0      22        0.0%
BITBANK9            50      0       0      23        0.0%
BITSFR22             0      0       0      23        0.0%
SFR22                0      0       0      23        0.0%
BANK9               50      0       0      24        0.0%
BITSFR23             0      0       0      24        0.0%
SFR23                0      0       0      24        0.0%
BITBANK10           50      0       0      25        0.0%
BITSFR24             0      0       0      25        0.0%
SFR24                0      0       0      25        0.0%
BANK10              50      0       0      26        0.0%
BITSFR25             0      0       0      26        0.0%
SFR25                0      0       0      26        0.0%
BITBANK11           50      0       0      27        0.0%
BITSFR26             0      0       0      27        0.0%
SFR26                0      0       0      27        0.0%
BANK11              50      0       0      28        0.0%
BITSFR27             0      0       0      28        0.0%
SFR27                0      0       0      28        0.0%
BITBANK12           30      0       0      29        0.0%
BITSFR28             0      0       0      29        0.0%
SFR28                0      0       0      29        0.0%
BANK12              30      0       0      30        0.0%
BITSFR29             0      0       0      30        0.0%
SFR29                0      0       0      30        0.0%
BITSFR30             0      0       0      31        0.0%
SFR30                0      0       0      31        0.0%
DATA                 0      0       0      31        0.0%
BITSFR31             0      0       0      32        0.0%
SFR31                0      0       0      32        0.0%


Microchip Technology PIC Macro Assembler V2.10 build 88905656 
Symbol Table                                                                                   Sun Sep 15 15:04:10 2019

                  _PWM_Config 007F                   __CFG_CP$OFF 0000                            l30 007E  
                          u10 005E                            u11 005B                            u24 0060  
                          u37 004D                           l130 0041                           l133 007F  
                         l127 0075                           l710 000E                           l720 001C  
                         l712 0012                           l730 002D                           l722 0020  
                         l714 0015                           l740 0036                           l732 002F  
                         l724 0024                           l716 0018                           l750 003F  
                         l742 0037                           l734 0032                           l726 0026  
                         l718 001A                           l752 0040                           l744 003A  
                         l736 0033                           l728 0028                           l760 006F  
                         l754 0076                           l746 003C                           l738 0035  
                         l762 0072                           l770 0054                           l756 007B  
                         l748 003E                           l764 0042                           l758 0063  
                         l766 0048                           l768 0053                           i1l5 0006  
                         _isr 0004                  __CFG_BORV$LO 0000                           wreg 0009  
                __CFG_LVP$OFF 0000                  __CFG_ZCD$OFF 0000                          ?_isr 0070  
                        _LATA 010C                          _LATB 010D                          _LATC 010E  
                        _T2PR 0494                          _WPUA 020C                          _WPUB 020D  
                        _WPUC 020E                          _WPUE 0210                  __CFG_WRT$OFF 0000  
                        _main 0042                          btemp 007E           __size_of_CCP_Config 0034  
                        start 0008                 __CFG_IESO$OFF 0000                 __CFG_MCLRE$ON 0000  
             __end_of_InitApp 0076                         ??_isr 0070                 __CFG_PLLEN$ON 0000  
                       ?_main 0070                         _CCPR1 0291                         _CCPR2 0295  
               __CFG_WDTE$OFF 0000                         _PORTA 000C                         _PORTB 000D  
                       _PORTC 000E                         _TRISA 008C                         _TRISB 008D  
                       _TRISC 008E           _ConfigureOscillator 0076                __CFG_FCMEN$OFF 0000  
              __CFG_BOREN$OFF 0000                         status 0003                         wtemp0 007E  
        ?_ConfigureOscillator 0070               __initialization 000A                  __end_of_main 0063  
                 ?_PWM_Config 0070                __CFG_LPBOR$OFF 0000                        ??_main 0070  
                      _CCPR7H 029A                        _CCPR7L 0299                        _ANSELA 018C  
                      _ANSELB 018D                        _ANSELC 018E                        _RC1PPS 0EA1  
                      _RB3PPS 0E9B                        _RA7PPS 0E97                        _RB5PPS 0E9D  
                      _ODCONA 028C                        _ODCONB 028D                        _ODCONC 028E  
                      _INLVLA 038C                        _INLVLB 038D                        _INLVLC 038E  
                   ??_InitApp 0070         ??_ConfigureOscillator 0070                __CFG_PWRTE$OFF 0000  
                _CCPTMRS1bits 029E                  ??_CCP_Config 0070           __size_of_PWM_Config 0001  
     __end_of__initialization 000A            __end_of_CCP_Config 0042                __pcstackCOMMON 0070  
              _OPTION_REGbits 0097                  _T2CLKCONbits 0497                    __pmaintext 0042  
             __CFG_PPS1WAY$ON 0000                    __pintentry 0004                       _SLRCONA 030C  
                     _SLRCONB 030D                       _SLRCONC 030E                       _InitApp 0063  
                ??_PWM_Config 0070               __CFG_STVREN$OFF 0000                       __ptext1 0063  
                     __ptext2 007F                       __ptext3 000E                       __ptext4 0076  
                   _T2CONbits 0495                  __size_of_isr 0004          end_of_initialization 000A  
          __end_of_PWM_Config 0080                     _PORTAbits 000C              __CFG_FOSC$INTOSC 0000  
                   _TRISBbits 008D                     _TRISCbits 008E   __end_of_ConfigureOscillator 007F  
                 _CCP1CONbits 0293                   _CCP2CONbits 0297                   _CCP7CONbits 029B  
         start_initialization 000A                   __end_of_isr 0008                     ___latbits 0002  
                    ?_InitApp 0070                      _LATAbits 010C                      _PIR1bits 0011  
            __size_of_InitApp 0013                    _CCP_Config 000E                 __size_of_main 0021  
__size_of_ConfigureOscillator 0009                      int$flags 007E                      intlevel1 0000  
           __CFG_CLKOUTEN$OFF 0000                    _OSCCONbits 009B                   ?_CCP_Config 0070  
