

Microchip MPLAB XC8 Assembler V2.10 build 88905656 
                                                                                               Mon Sep 16 21:21:59 2019

Microchip MPLAB XC8 C Compiler v2.10 (Free license) build 20190730164152 Og1 
     1                           	processor	16F1776
     2                           	opt	pw 120
     3                           	opt	flic
     4                           	psect	idataBANK0,global,class=CODE,delta=2
     5                           	psect	stringtext1,global,class=STRCODE,delta=2
     6                           	psect	stringtext2,global,class=STRCODE,delta=2
     7                           	psect	cinit,global,class=CODE,merge=1,delta=2
     8                           	psect	bssCOMMON,global,class=COMMON,space=1,delta=1
     9                           	psect	bssBANK0,global,class=BANK0,space=1,delta=1
    10                           	psect	dataBANK0,global,class=BANK0,space=1,delta=1
    11                           	psect	cstackCOMMON,global,class=COMMON,space=1,delta=1
    12                           	psect	cstackBANK0,global,class=BANK0,space=1,delta=1
    13                           	psect	maintext,global,class=CODE,merge=1,split=1,delta=2
    14                           	psect	text1,local,class=CODE,merge=1,delta=2,group=2
    15                           	psect	text2,local,class=CODE,merge=1,delta=2
    16                           	psect	text3,local,class=CODE,merge=1,delta=2
    17                           	psect	text4,local,class=CODE,merge=1,delta=2,group=2
    18                           	psect	text5,local,class=CODE,merge=1,delta=2,group=2
    19                           	psect	text6,local,class=CODE,merge=1,delta=2,group=1
    20                           	psect	text7,local,class=CODE,merge=1,delta=2
    21                           	psect	text8,local,class=CODE,merge=1,delta=2
    22                           	psect	text9,local,class=CODE,merge=1,delta=2
    23                           	psect	text10,local,class=CODE,merge=1,delta=2
    24                           	psect	text11,local,class=CODE,merge=1,delta=2
    25                           	psect	text12,local,class=CODE,merge=1,delta=2
    26                           	psect	text13,local,class=CODE,merge=1,delta=2
    27                           	psect	text14,local,class=CODE,merge=1,delta=2
    28                           	psect	intentry,global,class=CODE,delta=2
    29                           	dabs	1,0x7E,2
    30  0000                     
    31                           ; Version 2.10
    32                           ; Generated 31/07/2019 GMT
    33                           ; 
    34                           ; Copyright © 2019, Microchip Technology Inc. and its subsidiaries ("Microchip")
    35                           ; All rights reserved.
    36                           ; 
    37                           ; This software is developed by Microchip Technology Inc. and its subsidiaries ("Microch
      +                          ip").
    38                           ; 
    39                           ; Redistribution and use in source and binary forms, with or without modification, are
    40                           ; permitted provided that the following conditions are met:
    41                           ; 
    42                           ;     1. Redistributions of source code must retain the above copyright notice, this lis
      +                          t of
    43                           ;        conditions and the following disclaimer.
    44                           ; 
    45                           ;     2. Redistributions in binary form must reproduce the above copyright notice, this 
      +                          list
    46                           ;        of conditions and the following disclaimer in the documentation and/or other
    47                           ;        materials provided with the distribution.
    48                           ; 
    49                           ;     3. Microchip's name may not be used to endorse or promote products derived from th
      +                          is
    50                           ;        software without specific prior written permission.
    51                           ; 
    52                           ; THIS SOFTWARE IS PROVIDED BY MICROCHIP "AS IS" AND ANY EXPRESS OR IMPLIED WARRANTIES,
    53                           ; INCLUDING, BUT NOT LIMITED TO, THE IMPLIED WARRANTIES OF MERCHANTABILITY AND FITNESS F
      +                          OR
    54                           ; PURPOSE ARE DISCLAIMED.  IN NO EVENT SHALL MICROCHIP BE LIABLE FOR ANY DIRECT, INDIREC
      +                          T,
    55                           ; INCIDENTAL, SPECIAL, EXEMPLARY, OR CONSEQUENTIAL DAMAGES (INCLUDING BUT NOT LIMITED TO
    56                           ; PROCUREMENT OF SUBSTITUTE GOODS OR SERVICES; LOSS OF USE, DATA OR PROFITS; OR BUSINESS
    57                           ; INTERRUPTION) HOWSOEVER CAUSED AND ON ANY THEORY OF LIABILITY, WHETHER IN CONTRACT, ST
      +                          RICT
    58                           ; LIABILITY, OR TORT (INCLUDING NEGLIGENCE OR OTHERWISE) ARISING IN ANY WAY OUT OF THE U
      +                          SE OF
    59                           ; THIS SOFTWARE, EVEN IF ADVISED OF THE POSSIBILITY OF SUCH DAMAGE.
    60                           ; 
    61                           ; 
    62                           ; Code-generator required, PIC16F1776 Definitions
    63                           ; 
    64                           ; SFR Addresses
    65  0000                     	;# 
    66  0001                     	;# 
    67  0002                     	;# 
    68  0003                     	;# 
    69  0004                     	;# 
    70  0005                     	;# 
    71  0006                     	;# 
    72  0007                     	;# 
    73  0008                     	;# 
    74  0009                     	;# 
    75  000A                     	;# 
    76  000B                     	;# 
    77  000C                     	;# 
    78  000D                     	;# 
    79  000E                     	;# 
    80  0010                     	;# 
    81  0011                     	;# 
    82  0012                     	;# 
    83  0013                     	;# 
    84  0014                     	;# 
    85  0015                     	;# 
    86  0016                     	;# 
    87  0017                     	;# 
    88  0018                     	;# 
    89  0018                     	;# 
    90  0019                     	;# 
    91  001A                     	;# 
    92  001B                     	;# 
    93  001C                     	;# 
    94  001C                     	;# 
    95  001D                     	;# 
    96  001E                     	;# 
    97  001F                     	;# 
    98  008C                     	;# 
    99  008D                     	;# 
   100  008E                     	;# 
   101  0090                     	;# 
   102  0091                     	;# 
   103  0092                     	;# 
   104  0093                     	;# 
   105  0094                     	;# 
   106  0095                     	;# 
   107  0096                     	;# 
   108  0097                     	;# 
   109  0098                     	;# 
   110  0099                     	;# 
   111  009A                     	;# 
   112  009B                     	;# 
   113  009C                     	;# 
   114  009D                     	;# 
   115  009E                     	;# 
   116  009F                     	;# 
   117  010C                     	;# 
   118  010D                     	;# 
   119  010E                     	;# 
   120  0111                     	;# 
   121  0112                     	;# 
   122  0113                     	;# 
   123  0114                     	;# 
   124  0115                     	;# 
   125  0116                     	;# 
   126  0117                     	;# 
   127  0118                     	;# 
   128  0119                     	;# 
   129  011A                     	;# 
   130  011B                     	;# 
   131  011C                     	;# 
   132  011D                     	;# 
   133  018C                     	;# 
   134  018D                     	;# 
   135  018E                     	;# 
   136  0191                     	;# 
   137  0191                     	;# 
   138  0192                     	;# 
   139  0193                     	;# 
   140  0193                     	;# 
   141  0194                     	;# 
   142  0195                     	;# 
   143  0196                     	;# 
   144  0197                     	;# 
   145  0199                     	;# 
   146  0199                     	;# 
   147  0199                     	;# 
   148  019A                     	;# 
   149  019A                     	;# 
   150  019A                     	;# 
   151  019B                     	;# 
   152  019B                     	;# 
   153  019B                     	;# 
   154  019B                     	;# 
   155  019B                     	;# 
   156  019C                     	;# 
   157  019C                     	;# 
   158  019C                     	;# 
   159  019D                     	;# 
   160  019D                     	;# 
   161  019D                     	;# 
   162  019E                     	;# 
   163  019E                     	;# 
   164  019E                     	;# 
   165  019F                     	;# 
   166  019F                     	;# 
   167  019F                     	;# 
   168  019F                     	;# 
   169  019F                     	;# 
   170  020C                     	;# 
   171  020D                     	;# 
   172  020E                     	;# 
   173  0210                     	;# 
   174  0211                     	;# 
   175  0211                     	;# 
   176  0212                     	;# 
   177  0212                     	;# 
   178  0213                     	;# 
   179  0213                     	;# 
   180  0214                     	;# 
   181  0214                     	;# 
   182  0215                     	;# 
   183  0215                     	;# 
   184  0215                     	;# 
   185  0215                     	;# 
   186  0216                     	;# 
   187  0216                     	;# 
   188  0217                     	;# 
   189  0217                     	;# 
   190  021B                     	;# 
   191  021C                     	;# 
   192  021D                     	;# 
   193  021E                     	;# 
   194  021F                     	;# 
   195  028C                     	;# 
   196  028D                     	;# 
   197  028E                     	;# 
   198  0291                     	;# 
   199  0291                     	;# 
   200  0292                     	;# 
   201  0293                     	;# 
   202  0294                     	;# 
   203  0295                     	;# 
   204  0295                     	;# 
   205  0296                     	;# 
   206  0297                     	;# 
   207  0298                     	;# 
   208  0299                     	;# 
   209  0299                     	;# 
   210  029A                     	;# 
   211  029B                     	;# 
   212  029C                     	;# 
   213  029E                     	;# 
   214  029F                     	;# 
   215  030C                     	;# 
   216  030D                     	;# 
   217  030E                     	;# 
   218  0315                     	;# 
   219  0316                     	;# 
   220  0317                     	;# 
   221  0318                     	;# 
   222  0319                     	;# 
   223  031B                     	;# 
   224  031C                     	;# 
   225  031D                     	;# 
   226  031E                     	;# 
   227  031F                     	;# 
   228  038C                     	;# 
   229  038D                     	;# 
   230  038E                     	;# 
   231  0390                     	;# 
   232  0391                     	;# 
   233  0392                     	;# 
   234  0393                     	;# 
   235  0394                     	;# 
   236  0395                     	;# 
   237  0396                     	;# 
   238  0397                     	;# 
   239  0398                     	;# 
   240  0399                     	;# 
   241  039D                     	;# 
   242  039E                     	;# 
   243  039F                     	;# 
   244  040D                     	;# 
   245  040F                     	;# 
   246  040F                     	;# 
   247  0410                     	;# 
   248  0411                     	;# 
   249  0412                     	;# 
   250  0413                     	;# 
   251  0413                     	;# 
   252  0414                     	;# 
   253  0414                     	;# 
   254  0415                     	;# 
   255  0416                     	;# 
   256  0417                     	;# 
   257  0418                     	;# 
   258  041A                     	;# 
   259  041A                     	;# 
   260  041B                     	;# 
   261  041B                     	;# 
   262  041C                     	;# 
   263  041D                     	;# 
   264  041E                     	;# 
   265  041F                     	;# 
   266  048E                     	;# 
   267  048E                     	;# 
   268  048F                     	;# 
   269  0490                     	;# 
   270  0491                     	;# 
   271  0492                     	;# 
   272  0493                     	;# 
   273  0493                     	;# 
   274  0494                     	;# 
   275  0494                     	;# 
   276  0495                     	;# 
   277  0496                     	;# 
   278  0497                     	;# 
   279  0498                     	;# 
   280  049A                     	;# 
   281  049A                     	;# 
   282  049B                     	;# 
   283  049B                     	;# 
   284  049C                     	;# 
   285  049D                     	;# 
   286  049E                     	;# 
   287  049F                     	;# 
   288  050F                     	;# 
   289  0510                     	;# 
   290  0511                     	;# 
   291  0512                     	;# 
   292  0513                     	;# 
   293  0514                     	;# 
   294  0515                     	;# 
   295  0516                     	;# 
   296  0517                     	;# 
   297  0518                     	;# 
   298  0519                     	;# 
   299  051A                     	;# 
   300  058D                     	;# 
   301  058E                     	;# 
   302  058F                     	;# 
   303  058F                     	;# 
   304  058F                     	;# 
   305  0590                     	;# 
   306  0590                     	;# 
   307  0591                     	;# 
   308  0592                     	;# 
   309  0592                     	;# 
   310  0592                     	;# 
   311  0593                     	;# 
   312  0593                     	;# 
   313  0594                     	;# 
   314  0595                     	;# 
   315  0595                     	;# 
   316  0596                     	;# 
   317  0597                     	;# 
   318  0597                     	;# 
   319  0598                     	;# 
   320  0599                     	;# 
   321  0599                     	;# 
   322  0599                     	;# 
   323  059A                     	;# 
   324  059A                     	;# 
   325  059E                     	;# 
   326  059F                     	;# 
   327  059F                     	;# 
   328  0614                     	;# 
   329  0614                     	;# 
   330  0615                     	;# 
   331  0616                     	;# 
   332  0617                     	;# 
   333  0617                     	;# 
   334  0618                     	;# 
   335  0619                     	;# 
   336  061A                     	;# 
   337  061A                     	;# 
   338  061B                     	;# 
   339  061C                     	;# 
   340  068D                     	;# 
   341  068E                     	;# 
   342  068F                     	;# 
   343  0690                     	;# 
   344  0691                     	;# 
   345  0692                     	;# 
   346  0693                     	;# 
   347  0694                     	;# 
   348  0695                     	;# 
   349  0696                     	;# 
   350  0697                     	;# 
   351  0698                     	;# 
   352  0699                     	;# 
   353  069A                     	;# 
   354  069B                     	;# 
   355  069C                     	;# 
   356  069D                     	;# 
   357  069E                     	;# 
   358  069F                     	;# 
   359  070D                     	;# 
   360  070E                     	;# 
   361  070F                     	;# 
   362  0710                     	;# 
   363  0711                     	;# 
   364  0712                     	;# 
   365  0713                     	;# 
   366  0714                     	;# 
   367  0715                     	;# 
   368  0716                     	;# 
   369  0717                     	;# 
   370  0718                     	;# 
   371  0719                     	;# 
   372  071A                     	;# 
   373  071B                     	;# 
   374  071C                     	;# 
   375  071D                     	;# 
   376  071E                     	;# 
   377  071F                     	;# 
   378  078E                     	;# 
   379  078F                     	;# 
   380  0790                     	;# 
   381  0791                     	;# 
   382  0792                     	;# 
   383  0793                     	;# 
   384  0794                     	;# 
   385  0795                     	;# 
   386  0796                     	;# 
   387  0797                     	;# 
   388  0798                     	;# 
   389  0799                     	;# 
   390  079A                     	;# 
   391  079B                     	;# 
   392  079C                     	;# 
   393  079D                     	;# 
   394  079E                     	;# 
   395  079F                     	;# 
   396  080D                     	;# 
   397  080E                     	;# 
   398  080F                     	;# 
   399  0810                     	;# 
   400  0811                     	;# 
   401  0812                     	;# 
   402  0813                     	;# 
   403  0814                     	;# 
   404  0815                     	;# 
   405  0816                     	;# 
   406  0817                     	;# 
   407  0818                     	;# 
   408  0819                     	;# 
   409  081A                     	;# 
   410  081B                     	;# 
   411  081C                     	;# 
   412  081D                     	;# 
   413  081E                     	;# 
   414  081F                     	;# 
   415  090C                     	;# 
   416  090D                     	;# 
   417  090E                     	;# 
   418  090F                     	;# 
   419  0910                     	;# 
   420  0911                     	;# 
   421  0912                     	;# 
   422  0913                     	;# 
   423  0914                     	;# 
   424  0915                     	;# 
   425  0916                     	;# 
   426  0917                     	;# 
   427  0D8E                     	;# 
   428  0D8F                     	;# 
   429  0D90                     	;# 
   430  0D91                     	;# 
   431  0D91                     	;# 
   432  0D92                     	;# 
   433  0D93                     	;# 
   434  0D93                     	;# 
   435  0D94                     	;# 
   436  0D95                     	;# 
   437  0D95                     	;# 
   438  0D96                     	;# 
   439  0D97                     	;# 
   440  0D97                     	;# 
   441  0D98                     	;# 
   442  0D99                     	;# 
   443  0D99                     	;# 
   444  0D9A                     	;# 
   445  0D9B                     	;# 
   446  0D9C                     	;# 
   447  0D9C                     	;# 
   448  0D9D                     	;# 
   449  0D9D                     	;# 
   450  0D9E                     	;# 
   451  0D9F                     	;# 
   452  0DA0                     	;# 
   453  0DA1                     	;# 
   454  0DA1                     	;# 
   455  0DA2                     	;# 
   456  0DA3                     	;# 
   457  0DA3                     	;# 
   458  0DA4                     	;# 
   459  0DA5                     	;# 
   460  0DA5                     	;# 
   461  0DA6                     	;# 
   462  0DA7                     	;# 
   463  0DA7                     	;# 
   464  0DA8                     	;# 
   465  0DA9                     	;# 
   466  0DA9                     	;# 
   467  0DAA                     	;# 
   468  0DAB                     	;# 
   469  0DAC                     	;# 
   470  0DAC                     	;# 
   471  0DAD                     	;# 
   472  0DAD                     	;# 
   473  0DAE                     	;# 
   474  0DAF                     	;# 
   475  0DB0                     	;# 
   476  0DB1                     	;# 
   477  0DB1                     	;# 
   478  0DB2                     	;# 
   479  0DB3                     	;# 
   480  0DB3                     	;# 
   481  0DB4                     	;# 
   482  0DB5                     	;# 
   483  0DB5                     	;# 
   484  0DB6                     	;# 
   485  0DB7                     	;# 
   486  0DB7                     	;# 
   487  0DB8                     	;# 
   488  0DB9                     	;# 
   489  0DB9                     	;# 
   490  0DBA                     	;# 
   491  0DBB                     	;# 
   492  0DBC                     	;# 
   493  0DBC                     	;# 
   494  0DBD                     	;# 
   495  0DBD                     	;# 
   496  0DBE                     	;# 
   497  0DBF                     	;# 
   498  0DC0                     	;# 
   499  0E0C                     	;# 
   500  0E0D                     	;# 
   501  0E0E                     	;# 
   502  0E0F                     	;# 
   503  0E10                     	;# 
   504  0E11                     	;# 
   505  0E12                     	;# 
   506  0E13                     	;# 
   507  0E14                     	;# 
   508  0E15                     	;# 
   509  0E15                     	;# 
   510  0E15                     	;# 
   511  0E16                     	;# 
   512  0E16                     	;# 
   513  0E16                     	;# 
   514  0E17                     	;# 
   515  0E17                     	;# 
   516  0E17                     	;# 
   517  0E18                     	;# 
   518  0E18                     	;# 
   519  0E18                     	;# 
   520  0E19                     	;# 
   521  0E1A                     	;# 
   522  0E1B                     	;# 
   523  0E1D                     	;# 
   524  0E1E                     	;# 
   525  0E1F                     	;# 
   526  0E21                     	;# 
   527  0E22                     	;# 
   528  0E23                     	;# 
   529  0E24                     	;# 
   530  0E25                     	;# 
   531  0E26                     	;# 
   532  0E27                     	;# 
   533  0E28                     	;# 
   534  0E29                     	;# 
   535  0E2D                     	;# 
   536  0E2E                     	;# 
   537  0E2F                     	;# 
   538  0E30                     	;# 
   539  0E31                     	;# 
   540  0E32                     	;# 
   541  0E35                     	;# 
   542  0E36                     	;# 
   543  0E37                     	;# 
   544  0E38                     	;# 
   545  0E39                     	;# 
   546  0E3A                     	;# 
   547  0E3B                     	;# 
   548  0E3C                     	;# 
   549  0E3D                     	;# 
   550  0E3E                     	;# 
   551  0E90                     	;# 
   552  0E91                     	;# 
   553  0E92                     	;# 
   554  0E93                     	;# 
   555  0E94                     	;# 
   556  0E95                     	;# 
   557  0E96                     	;# 
   558  0E97                     	;# 
   559  0E98                     	;# 
   560  0E99                     	;# 
   561  0E9A                     	;# 
   562  0E9B                     	;# 
   563  0E9C                     	;# 
   564  0E9D                     	;# 
   565  0E9E                     	;# 
   566  0E9F                     	;# 
   567  0EA0                     	;# 
   568  0EA1                     	;# 
   569  0EA2                     	;# 
   570  0EA3                     	;# 
   571  0EA4                     	;# 
   572  0EA5                     	;# 
   573  0EA6                     	;# 
   574  0EA7                     	;# 
   575  0F0F                     	;# 
   576  0F10                     	;# 
   577  0F11                     	;# 
   578  0F12                     	;# 
   579  0F13                     	;# 
   580  0F14                     	;# 
   581  0F15                     	;# 
   582  0F16                     	;# 
   583  0F17                     	;# 
   584  0F18                     	;# 
   585  0F19                     	;# 
   586  0F1A                     	;# 
   587  0F1B                     	;# 
   588  0F1C                     	;# 
   589  0F1D                     	;# 
   590  0F1E                     	;# 
   591  0F1F                     	;# 
   592  0F20                     	;# 
   593  0F21                     	;# 
   594  0F22                     	;# 
   595  0F23                     	;# 
   596  0F24                     	;# 
   597  0F25                     	;# 
   598  0F26                     	;# 
   599  0F27                     	;# 
   600  0F28                     	;# 
   601  0F29                     	;# 
   602  0F2A                     	;# 
   603  0F2B                     	;# 
   604  0F2C                     	;# 
   605  0F2D                     	;# 
   606  0F2E                     	;# 
   607  0F2F                     	;# 
   608  0F30                     	;# 
   609  0F31                     	;# 
   610  0F32                     	;# 
   611  0F33                     	;# 
   612  0F34                     	;# 
   613  0F35                     	;# 
   614  0F36                     	;# 
   615  0F37                     	;# 
   616  0FE4                     	;# 
   617  0FE5                     	;# 
   618  0FE6                     	;# 
   619  0FE7                     	;# 
   620  0FE8                     	;# 
   621  0FE9                     	;# 
   622  0FEA                     	;# 
   623  0FEB                     	;# 
   624  0FED                     	;# 
   625  0FEE                     	;# 
   626  0FEF                     	;# 
   627  0000                     	;# 
   628  0001                     	;# 
   629  0002                     	;# 
   630  0003                     	;# 
   631  0004                     	;# 
   632  0005                     	;# 
   633  0006                     	;# 
   634  0007                     	;# 
   635  0008                     	;# 
   636  0009                     	;# 
   637  000A                     	;# 
   638  000B                     	;# 
   639  000C                     	;# 
   640  000D                     	;# 
   641  000E                     	;# 
   642  0010                     	;# 
   643  0011                     	;# 
   644  0012                     	;# 
   645  0013                     	;# 
   646  0014                     	;# 
   647  0015                     	;# 
   648  0016                     	;# 
   649  0017                     	;# 
   650  0018                     	;# 
   651  0018                     	;# 
   652  0019                     	;# 
   653  001A                     	;# 
   654  001B                     	;# 
   655  001C                     	;# 
   656  001C                     	;# 
   657  001D                     	;# 
   658  001E                     	;# 
   659  001F                     	;# 
   660  008C                     	;# 
   661  008D                     	;# 
   662  008E                     	;# 
   663  0090                     	;# 
   664  0091                     	;# 
   665  0092                     	;# 
   666  0093                     	;# 
   667  0094                     	;# 
   668  0095                     	;# 
   669  0096                     	;# 
   670  0097                     	;# 
   671  0098                     	;# 
   672  0099                     	;# 
   673  009A                     	;# 
   674  009B                     	;# 
   675  009C                     	;# 
   676  009D                     	;# 
   677  009E                     	;# 
   678  009F                     	;# 
   679  010C                     	;# 
   680  010D                     	;# 
   681  010E                     	;# 
   682  0111                     	;# 
   683  0112                     	;# 
   684  0113                     	;# 
   685  0114                     	;# 
   686  0115                     	;# 
   687  0116                     	;# 
   688  0117                     	;# 
   689  0118                     	;# 
   690  0119                     	;# 
   691  011A                     	;# 
   692  011B                     	;# 
   693  011C                     	;# 
   694  011D                     	;# 
   695  018C                     	;# 
   696  018D                     	;# 
   697  018E                     	;# 
   698  0191                     	;# 
   699  0191                     	;# 
   700  0192                     	;# 
   701  0193                     	;# 
   702  0193                     	;# 
   703  0194                     	;# 
   704  0195                     	;# 
   705  0196                     	;# 
   706  0197                     	;# 
   707  0199                     	;# 
   708  0199                     	;# 
   709  0199                     	;# 
   710  019A                     	;# 
   711  019A                     	;# 
   712  019A                     	;# 
   713  019B                     	;# 
   714  019B                     	;# 
   715  019B                     	;# 
   716  019B                     	;# 
   717  019B                     	;# 
   718  019C                     	;# 
   719  019C                     	;# 
   720  019C                     	;# 
   721  019D                     	;# 
   722  019D                     	;# 
   723  019D                     	;# 
   724  019E                     	;# 
   725  019E                     	;# 
   726  019E                     	;# 
   727  019F                     	;# 
   728  019F                     	;# 
   729  019F                     	;# 
   730  019F                     	;# 
   731  019F                     	;# 
   732  020C                     	;# 
   733  020D                     	;# 
   734  020E                     	;# 
   735  0210                     	;# 
   736  0211                     	;# 
   737  0211                     	;# 
   738  0212                     	;# 
   739  0212                     	;# 
   740  0213                     	;# 
   741  0213                     	;# 
   742  0214                     	;# 
   743  0214                     	;# 
   744  0215                     	;# 
   745  0215                     	;# 
   746  0215                     	;# 
   747  0215                     	;# 
   748  0216                     	;# 
   749  0216                     	;# 
   750  0217                     	;# 
   751  0217                     	;# 
   752  021B                     	;# 
   753  021C                     	;# 
   754  021D                     	;# 
   755  021E                     	;# 
   756  021F                     	;# 
   757  028C                     	;# 
   758  028D                     	;# 
   759  028E                     	;# 
   760  0291                     	;# 
   761  0291                     	;# 
   762  0292                     	;# 
   763  0293                     	;# 
   764  0294                     	;# 
   765  0295                     	;# 
   766  0295                     	;# 
   767  0296                     	;# 
   768  0297                     	;# 
   769  0298                     	;# 
   770  0299                     	;# 
   771  0299                     	;# 
   772  029A                     	;# 
   773  029B                     	;# 
   774  029C                     	;# 
   775  029E                     	;# 
   776  029F                     	;# 
   777  030C                     	;# 
   778  030D                     	;# 
   779  030E                     	;# 
   780  0315                     	;# 
   781  0316                     	;# 
   782  0317                     	;# 
   783  0318                     	;# 
   784  0319                     	;# 
   785  031B                     	;# 
   786  031C                     	;# 
   787  031D                     	;# 
   788  031E                     	;# 
   789  031F                     	;# 
   790  038C                     	;# 
   791  038D                     	;# 
   792  038E                     	;# 
   793  0390                     	;# 
   794  0391                     	;# 
   795  0392                     	;# 
   796  0393                     	;# 
   797  0394                     	;# 
   798  0395                     	;# 
   799  0396                     	;# 
   800  0397                     	;# 
   801  0398                     	;# 
   802  0399                     	;# 
   803  039D                     	;# 
   804  039E                     	;# 
   805  039F                     	;# 
   806  040D                     	;# 
   807  040F                     	;# 
   808  040F                     	;# 
   809  0410                     	;# 
   810  0411                     	;# 
   811  0412                     	;# 
   812  0413                     	;# 
   813  0413                     	;# 
   814  0414                     	;# 
   815  0414                     	;# 
   816  0415                     	;# 
   817  0416                     	;# 
   818  0417                     	;# 
   819  0418                     	;# 
   820  041A                     	;# 
   821  041A                     	;# 
   822  041B                     	;# 
   823  041B                     	;# 
   824  041C                     	;# 
   825  041D                     	;# 
   826  041E                     	;# 
   827  041F                     	;# 
   828  048E                     	;# 
   829  048E                     	;# 
   830  048F                     	;# 
   831  0490                     	;# 
   832  0491                     	;# 
   833  0492                     	;# 
   834  0493                     	;# 
   835  0493                     	;# 
   836  0494                     	;# 
   837  0494                     	;# 
   838  0495                     	;# 
   839  0496                     	;# 
   840  0497                     	;# 
   841  0498                     	;# 
   842  049A                     	;# 
   843  049A                     	;# 
   844  049B                     	;# 
   845  049B                     	;# 
   846  049C                     	;# 
   847  049D                     	;# 
   848  049E                     	;# 
   849  049F                     	;# 
   850  050F                     	;# 
   851  0510                     	;# 
   852  0511                     	;# 
   853  0512                     	;# 
   854  0513                     	;# 
   855  0514                     	;# 
   856  0515                     	;# 
   857  0516                     	;# 
   858  0517                     	;# 
   859  0518                     	;# 
   860  0519                     	;# 
   861  051A                     	;# 
   862  058D                     	;# 
   863  058E                     	;# 
   864  058F                     	;# 
   865  058F                     	;# 
   866  058F                     	;# 
   867  0590                     	;# 
   868  0590                     	;# 
   869  0591                     	;# 
   870  0592                     	;# 
   871  0592                     	;# 
   872  0592                     	;# 
   873  0593                     	;# 
   874  0593                     	;# 
   875  0594                     	;# 
   876  0595                     	;# 
   877  0595                     	;# 
   878  0596                     	;# 
   879  0597                     	;# 
   880  0597                     	;# 
   881  0598                     	;# 
   882  0599                     	;# 
   883  0599                     	;# 
   884  0599                     	;# 
   885  059A                     	;# 
   886  059A                     	;# 
   887  059E                     	;# 
   888  059F                     	;# 
   889  059F                     	;# 
   890  0614                     	;# 
   891  0614                     	;# 
   892  0615                     	;# 
   893  0616                     	;# 
   894  0617                     	;# 
   895  0617                     	;# 
   896  0618                     	;# 
   897  0619                     	;# 
   898  061A                     	;# 
   899  061A                     	;# 
   900  061B                     	;# 
   901  061C                     	;# 
   902  068D                     	;# 
   903  068E                     	;# 
   904  068F                     	;# 
   905  0690                     	;# 
   906  0691                     	;# 
   907  0692                     	;# 
   908  0693                     	;# 
   909  0694                     	;# 
   910  0695                     	;# 
   911  0696                     	;# 
   912  0697                     	;# 
   913  0698                     	;# 
   914  0699                     	;# 
   915  069A                     	;# 
   916  069B                     	;# 
   917  069C                     	;# 
   918  069D                     	;# 
   919  069E                     	;# 
   920  069F                     	;# 
   921  070D                     	;# 
   922  070E                     	;# 
   923  070F                     	;# 
   924  0710                     	;# 
   925  0711                     	;# 
   926  0712                     	;# 
   927  0713                     	;# 
   928  0714                     	;# 
   929  0715                     	;# 
   930  0716                     	;# 
   931  0717                     	;# 
   932  0718                     	;# 
   933  0719                     	;# 
   934  071A                     	;# 
   935  071B                     	;# 
   936  071C                     	;# 
   937  071D                     	;# 
   938  071E                     	;# 
   939  071F                     	;# 
   940  078E                     	;# 
   941  078F                     	;# 
   942  0790                     	;# 
   943  0791                     	;# 
   944  0792                     	;# 
   945  0793                     	;# 
   946  0794                     	;# 
   947  0795                     	;# 
   948  0796                     	;# 
   949  0797                     	;# 
   950  0798                     	;# 
   951  0799                     	;# 
   952  079A                     	;# 
   953  079B                     	;# 
   954  079C                     	;# 
   955  079D                     	;# 
   956  079E                     	;# 
   957  079F                     	;# 
   958  080D                     	;# 
   959  080E                     	;# 
   960  080F                     	;# 
   961  0810                     	;# 
   962  0811                     	;# 
   963  0812                     	;# 
   964  0813                     	;# 
   965  0814                     	;# 
   966  0815                     	;# 
   967  0816                     	;# 
   968  0817                     	;# 
   969  0818                     	;# 
   970  0819                     	;# 
   971  081A                     	;# 
   972  081B                     	;# 
   973  081C                     	;# 
   974  081D                     	;# 
   975  081E                     	;# 
   976  081F                     	;# 
   977  090C                     	;# 
   978  090D                     	;# 
   979  090E                     	;# 
   980  090F                     	;# 
   981  0910                     	;# 
   982  0911                     	;# 
   983  0912                     	;# 
   984  0913                     	;# 
   985  0914                     	;# 
   986  0915                     	;# 
   987  0916                     	;# 
   988  0917                     	;# 
   989  0D8E                     	;# 
   990  0D8F                     	;# 
   991  0D90                     	;# 
   992  0D91                     	;# 
   993  0D91                     	;# 
   994  0D92                     	;# 
   995  0D93                     	;# 
   996  0D93                     	;# 
   997  0D94                     	;# 
   998  0D95                     	;# 
   999  0D95                     	;# 
  1000  0D96                     	;# 
  1001  0D97                     	;# 
  1002  0D97                     	;# 
  1003  0D98                     	;# 
  1004  0D99                     	;# 
  1005  0D99                     	;# 
  1006  0D9A                     	;# 
  1007  0D9B                     	;# 
  1008  0D9C                     	;# 
  1009  0D9C                     	;# 
  1010  0D9D                     	;# 
  1011  0D9D                     	;# 
  1012  0D9E                     	;# 
  1013  0D9F                     	;# 
  1014  0DA0                     	;# 
  1015  0DA1                     	;# 
  1016  0DA1                     	;# 
  1017  0DA2                     	;# 
  1018  0DA3                     	;# 
  1019  0DA3                     	;# 
  1020  0DA4                     	;# 
  1021  0DA5                     	;# 
  1022  0DA5                     	;# 
  1023  0DA6                     	;# 
  1024  0DA7                     	;# 
  1025  0DA7                     	;# 
  1026  0DA8                     	;# 
  1027  0DA9                     	;# 
  1028  0DA9                     	;# 
  1029  0DAA                     	;# 
  1030  0DAB                     	;# 
  1031  0DAC                     	;# 
  1032  0DAC                     	;# 
  1033  0DAD                     	;# 
  1034  0DAD                     	;# 
  1035  0DAE                     	;# 
  1036  0DAF                     	;# 
  1037  0DB0                     	;# 
  1038  0DB1                     	;# 
  1039  0DB1                     	;# 
  1040  0DB2                     	;# 
  1041  0DB3                     	;# 
  1042  0DB3                     	;# 
  1043  0DB4                     	;# 
  1044  0DB5                     	;# 
  1045  0DB5                     	;# 
  1046  0DB6                     	;# 
  1047  0DB7                     	;# 
  1048  0DB7                     	;# 
  1049  0DB8                     	;# 
  1050  0DB9                     	;# 
  1051  0DB9                     	;# 
  1052  0DBA                     	;# 
  1053  0DBB                     	;# 
  1054  0DBC                     	;# 
  1055  0DBC                     	;# 
  1056  0DBD                     	;# 
  1057  0DBD                     	;# 
  1058  0DBE                     	;# 
  1059  0DBF                     	;# 
  1060  0DC0                     	;# 
  1061  0E0C                     	;# 
  1062  0E0D                     	;# 
  1063  0E0E                     	;# 
  1064  0E0F                     	;# 
  1065  0E10                     	;# 
  1066  0E11                     	;# 
  1067  0E12                     	;# 
  1068  0E13                     	;# 
  1069  0E14                     	;# 
  1070  0E15                     	;# 
  1071  0E15                     	;# 
  1072  0E15                     	;# 
  1073  0E16                     	;# 
  1074  0E16                     	;# 
  1075  0E16                     	;# 
  1076  0E17                     	;# 
  1077  0E17                     	;# 
  1078  0E17                     	;# 
  1079  0E18                     	;# 
  1080  0E18                     	;# 
  1081  0E18                     	;# 
  1082  0E19                     	;# 
  1083  0E1A                     	;# 
  1084  0E1B                     	;# 
  1085  0E1D                     	;# 
  1086  0E1E                     	;# 
  1087  0E1F                     	;# 
  1088  0E21                     	;# 
  1089  0E22                     	;# 
  1090  0E23                     	;# 
  1091  0E24                     	;# 
  1092  0E25                     	;# 
  1093  0E26                     	;# 
  1094  0E27                     	;# 
  1095  0E28                     	;# 
  1096  0E29                     	;# 
  1097  0E2D                     	;# 
  1098  0E2E                     	;# 
  1099  0E2F                     	;# 
  1100  0E30                     	;# 
  1101  0E31                     	;# 
  1102  0E32                     	;# 
  1103  0E35                     	;# 
  1104  0E36                     	;# 
  1105  0E37                     	;# 
  1106  0E38                     	;# 
  1107  0E39                     	;# 
  1108  0E3A                     	;# 
  1109  0E3B                     	;# 
  1110  0E3C                     	;# 
  1111  0E3D                     	;# 
  1112  0E3E                     	;# 
  1113  0E90                     	;# 
  1114  0E91                     	;# 
  1115  0E92                     	;# 
  1116  0E93                     	;# 
  1117  0E94                     	;# 
  1118  0E95                     	;# 
  1119  0E96                     	;# 
  1120  0E97                     	;# 
  1121  0E98                     	;# 
  1122  0E99                     	;# 
  1123  0E9A                     	;# 
  1124  0E9B                     	;# 
  1125  0E9C                     	;# 
  1126  0E9D                     	;# 
  1127  0E9E                     	;# 
  1128  0E9F                     	;# 
  1129  0EA0                     	;# 
  1130  0EA1                     	;# 
  1131  0EA2                     	;# 
  1132  0EA3                     	;# 
  1133  0EA4                     	;# 
  1134  0EA5                     	;# 
  1135  0EA6                     	;# 
  1136  0EA7                     	;# 
  1137  0F0F                     	;# 
  1138  0F10                     	;# 
  1139  0F11                     	;# 
  1140  0F12                     	;# 
  1141  0F13                     	;# 
  1142  0F14                     	;# 
  1143  0F15                     	;# 
  1144  0F16                     	;# 
  1145  0F17                     	;# 
  1146  0F18                     	;# 
  1147  0F19                     	;# 
  1148  0F1A                     	;# 
  1149  0F1B                     	;# 
  1150  0F1C                     	;# 
  1151  0F1D                     	;# 
  1152  0F1E                     	;# 
  1153  0F1F                     	;# 
  1154  0F20                     	;# 
  1155  0F21                     	;# 
  1156  0F22                     	;# 
  1157  0F23                     	;# 
  1158  0F24                     	;# 
  1159  0F25                     	;# 
  1160  0F26                     	;# 
  1161  0F27                     	;# 
  1162  0F28                     	;# 
  1163  0F29                     	;# 
  1164  0F2A                     	;# 
  1165  0F2B                     	;# 
  1166  0F2C                     	;# 
  1167  0F2D                     	;# 
  1168  0F2E                     	;# 
  1169  0F2F                     	;# 
  1170  0F30                     	;# 
  1171  0F31                     	;# 
  1172  0F32                     	;# 
  1173  0F33                     	;# 
  1174  0F34                     	;# 
  1175  0F35                     	;# 
  1176  0F36                     	;# 
  1177  0F37                     	;# 
  1178  0FE4                     	;# 
  1179  0FE5                     	;# 
  1180  0FE6                     	;# 
  1181  0FE7                     	;# 
  1182  0FE8                     	;# 
  1183  0FE9                     	;# 
  1184  0FEA                     	;# 
  1185  0FEB                     	;# 
  1186  0FED                     	;# 
  1187  0FEE                     	;# 
  1188  0FEF                     	;# 
  1189  0000                     	;# 
  1190  0001                     	;# 
  1191  0002                     	;# 
  1192  0003                     	;# 
  1193  0004                     	;# 
  1194  0005                     	;# 
  1195  0006                     	;# 
  1196  0007                     	;# 
  1197  0008                     	;# 
  1198  0009                     	;# 
  1199  000A                     	;# 
  1200  000B                     	;# 
  1201  000C                     	;# 
  1202  000D                     	;# 
  1203  000E                     	;# 
  1204  0010                     	;# 
  1205  0011                     	;# 
  1206  0012                     	;# 
  1207  0013                     	;# 
  1208  0014                     	;# 
  1209  0015                     	;# 
  1210  0016                     	;# 
  1211  0017                     	;# 
  1212  0018                     	;# 
  1213  0018                     	;# 
  1214  0019                     	;# 
  1215  001A                     	;# 
  1216  001B                     	;# 
  1217  001C                     	;# 
  1218  001C                     	;# 
  1219  001D                     	;# 
  1220  001E                     	;# 
  1221  001F                     	;# 
  1222  008C                     	;# 
  1223  008D                     	;# 
  1224  008E                     	;# 
  1225  0090                     	;# 
  1226  0091                     	;# 
  1227  0092                     	;# 
  1228  0093                     	;# 
  1229  0094                     	;# 
  1230  0095                     	;# 
  1231  0096                     	;# 
  1232  0097                     	;# 
  1233  0098                     	;# 
  1234  0099                     	;# 
  1235  009A                     	;# 
  1236  009B                     	;# 
  1237  009C                     	;# 
  1238  009D                     	;# 
  1239  009E                     	;# 
  1240  009F                     	;# 
  1241  010C                     	;# 
  1242  010D                     	;# 
  1243  010E                     	;# 
  1244  0111                     	;# 
  1245  0112                     	;# 
  1246  0113                     	;# 
  1247  0114                     	;# 
  1248  0115                     	;# 
  1249  0116                     	;# 
  1250  0117                     	;# 
  1251  0118                     	;# 
  1252  0119                     	;# 
  1253  011A                     	;# 
  1254  011B                     	;# 
  1255  011C                     	;# 
  1256  011D                     	;# 
  1257  018C                     	;# 
  1258  018D                     	;# 
  1259  018E                     	;# 
  1260  0191                     	;# 
  1261  0191                     	;# 
  1262  0192                     	;# 
  1263  0193                     	;# 
  1264  0193                     	;# 
  1265  0194                     	;# 
  1266  0195                     	;# 
  1267  0196                     	;# 
  1268  0197                     	;# 
  1269  0199                     	;# 
  1270  0199                     	;# 
  1271  0199                     	;# 
  1272  019A                     	;# 
  1273  019A                     	;# 
  1274  019A                     	;# 
  1275  019B                     	;# 
  1276  019B                     	;# 
  1277  019B                     	;# 
  1278  019B                     	;# 
  1279  019B                     	;# 
  1280  019C                     	;# 
  1281  019C                     	;# 
  1282  019C                     	;# 
  1283  019D                     	;# 
  1284  019D                     	;# 
  1285  019D                     	;# 
  1286  019E                     	;# 
  1287  019E                     	;# 
  1288  019E                     	;# 
  1289  019F                     	;# 
  1290  019F                     	;# 
  1291  019F                     	;# 
  1292  019F                     	;# 
  1293  019F                     	;# 
  1294  020C                     	;# 
  1295  020D                     	;# 
  1296  020E                     	;# 
  1297  0210                     	;# 
  1298  0211                     	;# 
  1299  0211                     	;# 
  1300  0212                     	;# 
  1301  0212                     	;# 
  1302  0213                     	;# 
  1303  0213                     	;# 
  1304  0214                     	;# 
  1305  0214                     	;# 
  1306  0215                     	;# 
  1307  0215                     	;# 
  1308  0215                     	;# 
  1309  0215                     	;# 
  1310  0216                     	;# 
  1311  0216                     	;# 
  1312  0217                     	;# 
  1313  0217                     	;# 
  1314  021B                     	;# 
  1315  021C                     	;# 
  1316  021D                     	;# 
  1317  021E                     	;# 
  1318  021F                     	;# 
  1319  028C                     	;# 
  1320  028D                     	;# 
  1321  028E                     	;# 
  1322  0291                     	;# 
  1323  0291                     	;# 
  1324  0292                     	;# 
  1325  0293                     	;# 
  1326  0294                     	;# 
  1327  0295                     	;# 
  1328  0295                     	;# 
  1329  0296                     	;# 
  1330  0297                     	;# 
  1331  0298                     	;# 
  1332  0299                     	;# 
  1333  0299                     	;# 
  1334  029A                     	;# 
  1335  029B                     	;# 
  1336  029C                     	;# 
  1337  029E                     	;# 
  1338  029F                     	;# 
  1339  030C                     	;# 
  1340  030D                     	;# 
  1341  030E                     	;# 
  1342  0315                     	;# 
  1343  0316                     	;# 
  1344  0317                     	;# 
  1345  0318                     	;# 
  1346  0319                     	;# 
  1347  031B                     	;# 
  1348  031C                     	;# 
  1349  031D                     	;# 
  1350  031E                     	;# 
  1351  031F                     	;# 
  1352  038C                     	;# 
  1353  038D                     	;# 
  1354  038E                     	;# 
  1355  0390                     	;# 
  1356  0391                     	;# 
  1357  0392                     	;# 
  1358  0393                     	;# 
  1359  0394                     	;# 
  1360  0395                     	;# 
  1361  0396                     	;# 
  1362  0397                     	;# 
  1363  0398                     	;# 
  1364  0399                     	;# 
  1365  039D                     	;# 
  1366  039E                     	;# 
  1367  039F                     	;# 
  1368  040D                     	;# 
  1369  040F                     	;# 
  1370  040F                     	;# 
  1371  0410                     	;# 
  1372  0411                     	;# 
  1373  0412                     	;# 
  1374  0413                     	;# 
  1375  0413                     	;# 
  1376  0414                     	;# 
  1377  0414                     	;# 
  1378  0415                     	;# 
  1379  0416                     	;# 
  1380  0417                     	;# 
  1381  0418                     	;# 
  1382  041A                     	;# 
  1383  041A                     	;# 
  1384  041B                     	;# 
  1385  041B                     	;# 
  1386  041C                     	;# 
  1387  041D                     	;# 
  1388  041E                     	;# 
  1389  041F                     	;# 
  1390  048E                     	;# 
  1391  048E                     	;# 
  1392  048F                     	;# 
  1393  0490                     	;# 
  1394  0491                     	;# 
  1395  0492                     	;# 
  1396  0493                     	;# 
  1397  0493                     	;# 
  1398  0494                     	;# 
  1399  0494                     	;# 
  1400  0495                     	;# 
  1401  0496                     	;# 
  1402  0497                     	;# 
  1403  0498                     	;# 
  1404  049A                     	;# 
  1405  049A                     	;# 
  1406  049B                     	;# 
  1407  049B                     	;# 
  1408  049C                     	;# 
  1409  049D                     	;# 
  1410  049E                     	;# 
  1411  049F                     	;# 
  1412  050F                     	;# 
  1413  0510                     	;# 
  1414  0511                     	;# 
  1415  0512                     	;# 
  1416  0513                     	;# 
  1417  0514                     	;# 
  1418  0515                     	;# 
  1419  0516                     	;# 
  1420  0517                     	;# 
  1421  0518                     	;# 
  1422  0519                     	;# 
  1423  051A                     	;# 
  1424  058D                     	;# 
  1425  058E                     	;# 
  1426  058F                     	;# 
  1427  058F                     	;# 
  1428  058F                     	;# 
  1429  0590                     	;# 
  1430  0590                     	;# 
  1431  0591                     	;# 
  1432  0592                     	;# 
  1433  0592                     	;# 
  1434  0592                     	;# 
  1435  0593                     	;# 
  1436  0593                     	;# 
  1437  0594                     	;# 
  1438  0595                     	;# 
  1439  0595                     	;# 
  1440  0596                     	;# 
  1441  0597                     	;# 
  1442  0597                     	;# 
  1443  0598                     	;# 
  1444  0599                     	;# 
  1445  0599                     	;# 
  1446  0599                     	;# 
  1447  059A                     	;# 
  1448  059A                     	;# 
  1449  059E                     	;# 
  1450  059F                     	;# 
  1451  059F                     	;# 
  1452  0614                     	;# 
  1453  0614                     	;# 
  1454  0615                     	;# 
  1455  0616                     	;# 
  1456  0617                     	;# 
  1457  0617                     	;# 
  1458  0618                     	;# 
  1459  0619                     	;# 
  1460  061A                     	;# 
  1461  061A                     	;# 
  1462  061B                     	;# 
  1463  061C                     	;# 
  1464  068D                     	;# 
  1465  068E                     	;# 
  1466  068F                     	;# 
  1467  0690                     	;# 
  1468  0691                     	;# 
  1469  0692                     	;# 
  1470  0693                     	;# 
  1471  0694                     	;# 
  1472  0695                     	;# 
  1473  0696                     	;# 
  1474  0697                     	;# 
  1475  0698                     	;# 
  1476  0699                     	;# 
  1477  069A                     	;# 
  1478  069B                     	;# 
  1479  069C                     	;# 
  1480  069D                     	;# 
  1481  069E                     	;# 
  1482  069F                     	;# 
  1483  070D                     	;# 
  1484  070E                     	;# 
  1485  070F                     	;# 
  1486  0710                     	;# 
  1487  0711                     	;# 
  1488  0712                     	;# 
  1489  0713                     	;# 
  1490  0714                     	;# 
  1491  0715                     	;# 
  1492  0716                     	;# 
  1493  0717                     	;# 
  1494  0718                     	;# 
  1495  0719                     	;# 
  1496  071A                     	;# 
  1497  071B                     	;# 
  1498  071C                     	;# 
  1499  071D                     	;# 
  1500  071E                     	;# 
  1501  071F                     	;# 
  1502  078E                     	;# 
  1503  078F                     	;# 
  1504  0790                     	;# 
  1505  0791                     	;# 
  1506  0792                     	;# 
  1507  0793                     	;# 
  1508  0794                     	;# 
  1509  0795                     	;# 
  1510  0796                     	;# 
  1511  0797                     	;# 
  1512  0798                     	;# 
  1513  0799                     	;# 
  1514  079A                     	;# 
  1515  079B                     	;# 
  1516  079C                     	;# 
  1517  079D                     	;# 
  1518  079E                     	;# 
  1519  079F                     	;# 
  1520  080D                     	;# 
  1521  080E                     	;# 
  1522  080F                     	;# 
  1523  0810                     	;# 
  1524  0811                     	;# 
  1525  0812                     	;# 
  1526  0813                     	;# 
  1527  0814                     	;# 
  1528  0815                     	;# 
  1529  0816                     	;# 
  1530  0817                     	;# 
  1531  0818                     	;# 
  1532  0819                     	;# 
  1533  081A                     	;# 
  1534  081B                     	;# 
  1535  081C                     	;# 
  1536  081D                     	;# 
  1537  081E                     	;# 
  1538  081F                     	;# 
  1539  090C                     	;# 
  1540  090D                     	;# 
  1541  090E                     	;# 
  1542  090F                     	;# 
  1543  0910                     	;# 
  1544  0911                     	;# 
  1545  0912                     	;# 
  1546  0913                     	;# 
  1547  0914                     	;# 
  1548  0915                     	;# 
  1549  0916                     	;# 
  1550  0917                     	;# 
  1551  0D8E                     	;# 
  1552  0D8F                     	;# 
  1553  0D90                     	;# 
  1554  0D91                     	;# 
  1555  0D91                     	;# 
  1556  0D92                     	;# 
  1557  0D93                     	;# 
  1558  0D93                     	;# 
  1559  0D94                     	;# 
  1560  0D95                     	;# 
  1561  0D95                     	;# 
  1562  0D96                     	;# 
  1563  0D97                     	;# 
  1564  0D97                     	;# 
  1565  0D98                     	;# 
  1566  0D99                     	;# 
  1567  0D99                     	;# 
  1568  0D9A                     	;# 
  1569  0D9B                     	;# 
  1570  0D9C                     	;# 
  1571  0D9C                     	;# 
  1572  0D9D                     	;# 
  1573  0D9D                     	;# 
  1574  0D9E                     	;# 
  1575  0D9F                     	;# 
  1576  0DA0                     	;# 
  1577  0DA1                     	;# 
  1578  0DA1                     	;# 
  1579  0DA2                     	;# 
  1580  0DA3                     	;# 
  1581  0DA3                     	;# 
  1582  0DA4                     	;# 
  1583  0DA5                     	;# 
  1584  0DA5                     	;# 
  1585  0DA6                     	;# 
  1586  0DA7                     	;# 
  1587  0DA7                     	;# 
  1588  0DA8                     	;# 
  1589  0DA9                     	;# 
  1590  0DA9                     	;# 
  1591  0DAA                     	;# 
  1592  0DAB                     	;# 
  1593  0DAC                     	;# 
  1594  0DAC                     	;# 
  1595  0DAD                     	;# 
  1596  0DAD                     	;# 
  1597  0DAE                     	;# 
  1598  0DAF                     	;# 
  1599  0DB0                     	;# 
  1600  0DB1                     	;# 
  1601  0DB1                     	;# 
  1602  0DB2                     	;# 
  1603  0DB3                     	;# 
  1604  0DB3                     	;# 
  1605  0DB4                     	;# 
  1606  0DB5                     	;# 
  1607  0DB5                     	;# 
  1608  0DB6                     	;# 
  1609  0DB7                     	;# 
  1610  0DB7                     	;# 
  1611  0DB8                     	;# 
  1612  0DB9                     	;# 
  1613  0DB9                     	;# 
  1614  0DBA                     	;# 
  1615  0DBB                     	;# 
  1616  0DBC                     	;# 
  1617  0DBC                     	;# 
  1618  0DBD                     	;# 
  1619  0DBD                     	;# 
  1620  0DBE                     	;# 
  1621  0DBF                     	;# 
  1622  0DC0                     	;# 
  1623  0E0C                     	;# 
  1624  0E0D                     	;# 
  1625  0E0E                     	;# 
  1626  0E0F                     	;# 
  1627  0E10                     	;# 
  1628  0E11                     	;# 
  1629  0E12                     	;# 
  1630  0E13                     	;# 
  1631  0E14                     	;# 
  1632  0E15                     	;# 
  1633  0E15                     	;# 
  1634  0E15                     	;# 
  1635  0E16                     	;# 
  1636  0E16                     	;# 
  1637  0E16                     	;# 
  1638  0E17                     	;# 
  1639  0E17                     	;# 
  1640  0E17                     	;# 
  1641  0E18                     	;# 
  1642  0E18                     	;# 
  1643  0E18                     	;# 
  1644  0E19                     	;# 
  1645  0E1A                     	;# 
  1646  0E1B                     	;# 
  1647  0E1D                     	;# 
  1648  0E1E                     	;# 
  1649  0E1F                     	;# 
  1650  0E21                     	;# 
  1651  0E22                     	;# 
  1652  0E23                     	;# 
  1653  0E24                     	;# 
  1654  0E25                     	;# 
  1655  0E26                     	;# 
  1656  0E27                     	;# 
  1657  0E28                     	;# 
  1658  0E29                     	;# 
  1659  0E2D                     	;# 
  1660  0E2E                     	;# 
  1661  0E2F                     	;# 
  1662  0E30                     	;# 
  1663  0E31                     	;# 
  1664  0E32                     	;# 
  1665  0E35                     	;# 
  1666  0E36                     	;# 
  1667  0E37                     	;# 
  1668  0E38                     	;# 
  1669  0E39                     	;# 
  1670  0E3A                     	;# 
  1671  0E3B                     	;# 
  1672  0E3C                     	;# 
  1673  0E3D                     	;# 
  1674  0E3E                     	;# 
  1675  0E90                     	;# 
  1676  0E91                     	;# 
  1677  0E92                     	;# 
  1678  0E93                     	;# 
  1679  0E94                     	;# 
  1680  0E95                     	;# 
  1681  0E96                     	;# 
  1682  0E97                     	;# 
  1683  0E98                     	;# 
  1684  0E99                     	;# 
  1685  0E9A                     	;# 
  1686  0E9B                     	;# 
  1687  0E9C                     	;# 
  1688  0E9D                     	;# 
  1689  0E9E                     	;# 
  1690  0E9F                     	;# 
  1691  0EA0                     	;# 
  1692  0EA1                     	;# 
  1693  0EA2                     	;# 
  1694  0EA3                     	;# 
  1695  0EA4                     	;# 
  1696  0EA5                     	;# 
  1697  0EA6                     	;# 
  1698  0EA7                     	;# 
  1699  0F0F                     	;# 
  1700  0F10                     	;# 
  1701  0F11                     	;# 
  1702  0F12                     	;# 
  1703  0F13                     	;# 
  1704  0F14                     	;# 
  1705  0F15                     	;# 
  1706  0F16                     	;# 
  1707  0F17                     	;# 
  1708  0F18                     	;# 
  1709  0F19                     	;# 
  1710  0F1A                     	;# 
  1711  0F1B                     	;# 
  1712  0F1C                     	;# 
  1713  0F1D                     	;# 
  1714  0F1E                     	;# 
  1715  0F1F                     	;# 
  1716  0F20                     	;# 
  1717  0F21                     	;# 
  1718  0F22                     	;# 
  1719  0F23                     	;# 
  1720  0F24                     	;# 
  1721  0F25                     	;# 
  1722  0F26                     	;# 
  1723  0F27                     	;# 
  1724  0F28                     	;# 
  1725  0F29                     	;# 
  1726  0F2A                     	;# 
  1727  0F2B                     	;# 
  1728  0F2C                     	;# 
  1729  0F2D                     	;# 
  1730  0F2E                     	;# 
  1731  0F2F                     	;# 
  1732  0F30                     	;# 
  1733  0F31                     	;# 
  1734  0F32                     	;# 
  1735  0F33                     	;# 
  1736  0F34                     	;# 
  1737  0F35                     	;# 
  1738  0F36                     	;# 
  1739  0F37                     	;# 
  1740  0FE4                     	;# 
  1741  0FE5                     	;# 
  1742  0FE6                     	;# 
  1743  0FE7                     	;# 
  1744  0FE8                     	;# 
  1745  0FE9                     	;# 
  1746  0FEA                     	;# 
  1747  0FEB                     	;# 
  1748  0FED                     	;# 
  1749  0FEE                     	;# 
  1750  0FEF                     	;# 
  1751  0000                     	;# 
  1752  0001                     	;# 
  1753  0002                     	;# 
  1754  0003                     	;# 
  1755  0004                     	;# 
  1756  0005                     	;# 
  1757  0006                     	;# 
  1758  0007                     	;# 
  1759  0008                     	;# 
  1760  0009                     	;# 
  1761  000A                     	;# 
  1762  000B                     	;# 
  1763  000C                     	;# 
  1764  000D                     	;# 
  1765  000E                     	;# 
  1766  0010                     	;# 
  1767  0011                     	;# 
  1768  0012                     	;# 
  1769  0013                     	;# 
  1770  0014                     	;# 
  1771  0015                     	;# 
  1772  0016                     	;# 
  1773  0017                     	;# 
  1774  0018                     	;# 
  1775  0018                     	;# 
  1776  0019                     	;# 
  1777  001A                     	;# 
  1778  001B                     	;# 
  1779  001C                     	;# 
  1780  001C                     	;# 
  1781  001D                     	;# 
  1782  001E                     	;# 
  1783  001F                     	;# 
  1784  008C                     	;# 
  1785  008D                     	;# 
  1786  008E                     	;# 
  1787  0090                     	;# 
  1788  0091                     	;# 
  1789  0092                     	;# 
  1790  0093                     	;# 
  1791  0094                     	;# 
  1792  0095                     	;# 
  1793  0096                     	;# 
  1794  0097                     	;# 
  1795  0098                     	;# 
  1796  0099                     	;# 
  1797  009A                     	;# 
  1798  009B                     	;# 
  1799  009C                     	;# 
  1800  009D                     	;# 
  1801  009E                     	;# 
  1802  009F                     	;# 
  1803  010C                     	;# 
  1804  010D                     	;# 
  1805  010E                     	;# 
  1806  0111                     	;# 
  1807  0112                     	;# 
  1808  0113                     	;# 
  1809  0114                     	;# 
  1810  0115                     	;# 
  1811  0116                     	;# 
  1812  0117                     	;# 
  1813  0118                     	;# 
  1814  0119                     	;# 
  1815  011A                     	;# 
  1816  011B                     	;# 
  1817  011C                     	;# 
  1818  011D                     	;# 
  1819  018C                     	;# 
  1820  018D                     	;# 
  1821  018E                     	;# 
  1822  0191                     	;# 
  1823  0191                     	;# 
  1824  0192                     	;# 
  1825  0193                     	;# 
  1826  0193                     	;# 
  1827  0194                     	;# 
  1828  0195                     	;# 
  1829  0196                     	;# 
  1830  0197                     	;# 
  1831  0199                     	;# 
  1832  0199                     	;# 
  1833  0199                     	;# 
  1834  019A                     	;# 
  1835  019A                     	;# 
  1836  019A                     	;# 
  1837  019B                     	;# 
  1838  019B                     	;# 
  1839  019B                     	;# 
  1840  019B                     	;# 
  1841  019B                     	;# 
  1842  019C                     	;# 
  1843  019C                     	;# 
  1844  019C                     	;# 
  1845  019D                     	;# 
  1846  019D                     	;# 
  1847  019D                     	;# 
  1848  019E                     	;# 
  1849  019E                     	;# 
  1850  019E                     	;# 
  1851  019F                     	;# 
  1852  019F                     	;# 
  1853  019F                     	;# 
  1854  019F                     	;# 
  1855  019F                     	;# 
  1856  020C                     	;# 
  1857  020D                     	;# 
  1858  020E                     	;# 
  1859  0210                     	;# 
  1860  0211                     	;# 
  1861  0211                     	;# 
  1862  0212                     	;# 
  1863  0212                     	;# 
  1864  0213                     	;# 
  1865  0213                     	;# 
  1866  0214                     	;# 
  1867  0214                     	;# 
  1868  0215                     	;# 
  1869  0215                     	;# 
  1870  0215                     	;# 
  1871  0215                     	;# 
  1872  0216                     	;# 
  1873  0216                     	;# 
  1874  0217                     	;# 
  1875  0217                     	;# 
  1876  021B                     	;# 
  1877  021C                     	;# 
  1878  021D                     	;# 
  1879  021E                     	;# 
  1880  021F                     	;# 
  1881  028C                     	;# 
  1882  028D                     	;# 
  1883  028E                     	;# 
  1884  0291                     	;# 
  1885  0291                     	;# 
  1886  0292                     	;# 
  1887  0293                     	;# 
  1888  0294                     	;# 
  1889  0295                     	;# 
  1890  0295                     	;# 
  1891  0296                     	;# 
  1892  0297                     	;# 
  1893  0298                     	;# 
  1894  0299                     	;# 
  1895  0299                     	;# 
  1896  029A                     	;# 
  1897  029B                     	;# 
  1898  029C                     	;# 
  1899  029E                     	;# 
  1900  029F                     	;# 
  1901  030C                     	;# 
  1902  030D                     	;# 
  1903  030E                     	;# 
  1904  0315                     	;# 
  1905  0316                     	;# 
  1906  0317                     	;# 
  1907  0318                     	;# 
  1908  0319                     	;# 
  1909  031B                     	;# 
  1910  031C                     	;# 
  1911  031D                     	;# 
  1912  031E                     	;# 
  1913  031F                     	;# 
  1914  038C                     	;# 
  1915  038D                     	;# 
  1916  038E                     	;# 
  1917  0390                     	;# 
  1918  0391                     	;# 
  1919  0392                     	;# 
  1920  0393                     	;# 
  1921  0394                     	;# 
  1922  0395                     	;# 
  1923  0396                     	;# 
  1924  0397                     	;# 
  1925  0398                     	;# 
  1926  0399                     	;# 
  1927  039D                     	;# 
  1928  039E                     	;# 
  1929  039F                     	;# 
  1930  040D                     	;# 
  1931  040F                     	;# 
  1932  040F                     	;# 
  1933  0410                     	;# 
  1934  0411                     	;# 
  1935  0412                     	;# 
  1936  0413                     	;# 
  1937  0413                     	;# 
  1938  0414                     	;# 
  1939  0414                     	;# 
  1940  0415                     	;# 
  1941  0416                     	;# 
  1942  0417                     	;# 
  1943  0418                     	;# 
  1944  041A                     	;# 
  1945  041A                     	;# 
  1946  041B                     	;# 
  1947  041B                     	;# 
  1948  041C                     	;# 
  1949  041D                     	;# 
  1950  041E                     	;# 
  1951  041F                     	;# 
  1952  048E                     	;# 
  1953  048E                     	;# 
  1954  048F                     	;# 
  1955  0490                     	;# 
  1956  0491                     	;# 
  1957  0492                     	;# 
  1958  0493                     	;# 
  1959  0493                     	;# 
  1960  0494                     	;# 
  1961  0494                     	;# 
  1962  0495                     	;# 
  1963  0496                     	;# 
  1964  0497                     	;# 
  1965  0498                     	;# 
  1966  049A                     	;# 
  1967  049A                     	;# 
  1968  049B                     	;# 
  1969  049B                     	;# 
  1970  049C                     	;# 
  1971  049D                     	;# 
  1972  049E                     	;# 
  1973  049F                     	;# 
  1974  050F                     	;# 
  1975  0510                     	;# 
  1976  0511                     	;# 
  1977  0512                     	;# 
  1978  0513                     	;# 
  1979  0514                     	;# 
  1980  0515                     	;# 
  1981  0516                     	;# 
  1982  0517                     	;# 
  1983  0518                     	;# 
  1984  0519                     	;# 
  1985  051A                     	;# 
  1986  058D                     	;# 
  1987  058E                     	;# 
  1988  058F                     	;# 
  1989  058F                     	;# 
  1990  058F                     	;# 
  1991  0590                     	;# 
  1992  0590                     	;# 
  1993  0591                     	;# 
  1994  0592                     	;# 
  1995  0592                     	;# 
  1996  0592                     	;# 
  1997  0593                     	;# 
  1998  0593                     	;# 
  1999  0594                     	;# 
  2000  0595                     	;# 
  2001  0595                     	;# 
  2002  0596                     	;# 
  2003  0597                     	;# 
  2004  0597                     	;# 
  2005  0598                     	;# 
  2006  0599                     	;# 
  2007  0599                     	;# 
  2008  0599                     	;# 
  2009  059A                     	;# 
  2010  059A                     	;# 
  2011  059E                     	;# 
  2012  059F                     	;# 
  2013  059F                     	;# 
  2014  0614                     	;# 
  2015  0614                     	;# 
  2016  0615                     	;# 
  2017  0616                     	;# 
  2018  0617                     	;# 
  2019  0617                     	;# 
  2020  0618                     	;# 
  2021  0619                     	;# 
  2022  061A                     	;# 
  2023  061A                     	;# 
  2024  061B                     	;# 
  2025  061C                     	;# 
  2026  068D                     	;# 
  2027  068E                     	;# 
  2028  068F                     	;# 
  2029  0690                     	;# 
  2030  0691                     	;# 
  2031  0692                     	;# 
  2032  0693                     	;# 
  2033  0694                     	;# 
  2034  0695                     	;# 
  2035  0696                     	;# 
  2036  0697                     	;# 
  2037  0698                     	;# 
  2038  0699                     	;# 
  2039  069A                     	;# 
  2040  069B                     	;# 
  2041  069C                     	;# 
  2042  069D                     	;# 
  2043  069E                     	;# 
  2044  069F                     	;# 
  2045  070D                     	;# 
  2046  070E                     	;# 
  2047  070F                     	;# 
  2048  0710                     	;# 
  2049  0711                     	;# 
  2050  0712                     	;# 
  2051  0713                     	;# 
  2052  0714                     	;# 
  2053  0715                     	;# 
  2054  0716                     	;# 
  2055  0717                     	;# 
  2056  0718                     	;# 
  2057  0719                     	;# 
  2058  071A                     	;# 
  2059  071B                     	;# 
  2060  071C                     	;# 
  2061  071D                     	;# 
  2062  071E                     	;# 
  2063  071F                     	;# 
  2064  078E                     	;# 
  2065  078F                     	;# 
  2066  0790                     	;# 
  2067  0791                     	;# 
  2068  0792                     	;# 
  2069  0793                     	;# 
  2070  0794                     	;# 
  2071  0795                     	;# 
  2072  0796                     	;# 
  2073  0797                     	;# 
  2074  0798                     	;# 
  2075  0799                     	;# 
  2076  079A                     	;# 
  2077  079B                     	;# 
  2078  079C                     	;# 
  2079  079D                     	;# 
  2080  079E                     	;# 
  2081  079F                     	;# 
  2082  080D                     	;# 
  2083  080E                     	;# 
  2084  080F                     	;# 
  2085  0810                     	;# 
  2086  0811                     	;# 
  2087  0812                     	;# 
  2088  0813                     	;# 
  2089  0814                     	;# 
  2090  0815                     	;# 
  2091  0816                     	;# 
  2092  0817                     	;# 
  2093  0818                     	;# 
  2094  0819                     	;# 
  2095  081A                     	;# 
  2096  081B                     	;# 
  2097  081C                     	;# 
  2098  081D                     	;# 
  2099  081E                     	;# 
  2100  081F                     	;# 
  2101  090C                     	;# 
  2102  090D                     	;# 
  2103  090E                     	;# 
  2104  090F                     	;# 
  2105  0910                     	;# 
  2106  0911                     	;# 
  2107  0912                     	;# 
  2108  0913                     	;# 
  2109  0914                     	;# 
  2110  0915                     	;# 
  2111  0916                     	;# 
  2112  0917                     	;# 
  2113  0D8E                     	;# 
  2114  0D8F                     	;# 
  2115  0D90                     	;# 
  2116  0D91                     	;# 
  2117  0D91                     	;# 
  2118  0D92                     	;# 
  2119  0D93                     	;# 
  2120  0D93                     	;# 
  2121  0D94                     	;# 
  2122  0D95                     	;# 
  2123  0D95                     	;# 
  2124  0D96                     	;# 
  2125  0D97                     	;# 
  2126  0D97                     	;# 
  2127  0D98                     	;# 
  2128  0D99                     	;# 
  2129  0D99                     	;# 
  2130  0D9A                     	;# 
  2131  0D9B                     	;# 
  2132  0D9C                     	;# 
  2133  0D9C                     	;# 
  2134  0D9D                     	;# 
  2135  0D9D                     	;# 
  2136  0D9E                     	;# 
  2137  0D9F                     	;# 
  2138  0DA0                     	;# 
  2139  0DA1                     	;# 
  2140  0DA1                     	;# 
  2141  0DA2                     	;# 
  2142  0DA3                     	;# 
  2143  0DA3                     	;# 
  2144  0DA4                     	;# 
  2145  0DA5                     	;# 
  2146  0DA5                     	;# 
  2147  0DA6                     	;# 
  2148  0DA7                     	;# 
  2149  0DA7                     	;# 
  2150  0DA8                     	;# 
  2151  0DA9                     	;# 
  2152  0DA9                     	;# 
  2153  0DAA                     	;# 
  2154  0DAB                     	;# 
  2155  0DAC                     	;# 
  2156  0DAC                     	;# 
  2157  0DAD                     	;# 
  2158  0DAD                     	;# 
  2159  0DAE                     	;# 
  2160  0DAF                     	;# 
  2161  0DB0                     	;# 
  2162  0DB1                     	;# 
  2163  0DB1                     	;# 
  2164  0DB2                     	;# 
  2165  0DB3                     	;# 
  2166  0DB3                     	;# 
  2167  0DB4                     	;# 
  2168  0DB5                     	;# 
  2169  0DB5                     	;# 
  2170  0DB6                     	;# 
  2171  0DB7                     	;# 
  2172  0DB7                     	;# 
  2173  0DB8                     	;# 
  2174  0DB9                     	;# 
  2175  0DB9                     	;# 
  2176  0DBA                     	;# 
  2177  0DBB                     	;# 
  2178  0DBC                     	;# 
  2179  0DBC                     	;# 
  2180  0DBD                     	;# 
  2181  0DBD                     	;# 
  2182  0DBE                     	;# 
  2183  0DBF                     	;# 
  2184  0DC0                     	;# 
  2185  0E0C                     	;# 
  2186  0E0D                     	;# 
  2187  0E0E                     	;# 
  2188  0E0F                     	;# 
  2189  0E10                     	;# 
  2190  0E11                     	;# 
  2191  0E12                     	;# 
  2192  0E13                     	;# 
  2193  0E14                     	;# 
  2194  0E15                     	;# 
  2195  0E15                     	;# 
  2196  0E15                     	;# 
  2197  0E16                     	;# 
  2198  0E16                     	;# 
  2199  0E16                     	;# 
  2200  0E17                     	;# 
  2201  0E17                     	;# 
  2202  0E17                     	;# 
  2203  0E18                     	;# 
  2204  0E18                     	;# 
  2205  0E18                     	;# 
  2206  0E19                     	;# 
  2207  0E1A                     	;# 
  2208  0E1B                     	;# 
  2209  0E1D                     	;# 
  2210  0E1E                     	;# 
  2211  0E1F                     	;# 
  2212  0E21                     	;# 
  2213  0E22                     	;# 
  2214  0E23                     	;# 
  2215  0E24                     	;# 
  2216  0E25                     	;# 
  2217  0E26                     	;# 
  2218  0E27                     	;# 
  2219  0E28                     	;# 
  2220  0E29                     	;# 
  2221  0E2D                     	;# 
  2222  0E2E                     	;# 
  2223  0E2F                     	;# 
  2224  0E30                     	;# 
  2225  0E31                     	;# 
  2226  0E32                     	;# 
  2227  0E35                     	;# 
  2228  0E36                     	;# 
  2229  0E37                     	;# 
  2230  0E38                     	;# 
  2231  0E39                     	;# 
  2232  0E3A                     	;# 
  2233  0E3B                     	;# 
  2234  0E3C                     	;# 
  2235  0E3D                     	;# 
  2236  0E3E                     	;# 
  2237  0E90                     	;# 
  2238  0E91                     	;# 
  2239  0E92                     	;# 
  2240  0E93                     	;# 
  2241  0E94                     	;# 
  2242  0E95                     	;# 
  2243  0E96                     	;# 
  2244  0E97                     	;# 
  2245  0E98                     	;# 
  2246  0E99                     	;# 
  2247  0E9A                     	;# 
  2248  0E9B                     	;# 
  2249  0E9C                     	;# 
  2250  0E9D                     	;# 
  2251  0E9E                     	;# 
  2252  0E9F                     	;# 
  2253  0EA0                     	;# 
  2254  0EA1                     	;# 
  2255  0EA2                     	;# 
  2256  0EA3                     	;# 
  2257  0EA4                     	;# 
  2258  0EA5                     	;# 
  2259  0EA6                     	;# 
  2260  0EA7                     	;# 
  2261  0F0F                     	;# 
  2262  0F10                     	;# 
  2263  0F11                     	;# 
  2264  0F12                     	;# 
  2265  0F13                     	;# 
  2266  0F14                     	;# 
  2267  0F15                     	;# 
  2268  0F16                     	;# 
  2269  0F17                     	;# 
  2270  0F18                     	;# 
  2271  0F19                     	;# 
  2272  0F1A                     	;# 
  2273  0F1B                     	;# 
  2274  0F1C                     	;# 
  2275  0F1D                     	;# 
  2276  0F1E                     	;# 
  2277  0F1F                     	;# 
  2278  0F20                     	;# 
  2279  0F21                     	;# 
  2280  0F22                     	;# 
  2281  0F23                     	;# 
  2282  0F24                     	;# 
  2283  0F25                     	;# 
  2284  0F26                     	;# 
  2285  0F27                     	;# 
  2286  0F28                     	;# 
  2287  0F29                     	;# 
  2288  0F2A                     	;# 
  2289  0F2B                     	;# 
  2290  0F2C                     	;# 
  2291  0F2D                     	;# 
  2292  0F2E                     	;# 
  2293  0F2F                     	;# 
  2294  0F30                     	;# 
  2295  0F31                     	;# 
  2296  0F32                     	;# 
  2297  0F33                     	;# 
  2298  0F34                     	;# 
  2299  0F35                     	;# 
  2300  0F36                     	;# 
  2301  0F37                     	;# 
  2302  0FE4                     	;# 
  2303  0FE5                     	;# 
  2304  0FE6                     	;# 
  2305  0FE7                     	;# 
  2306  0FE8                     	;# 
  2307  0FE9                     	;# 
  2308  0FEA                     	;# 
  2309  0FEB                     	;# 
  2310  0FED                     	;# 
  2311  0FEE                     	;# 
  2312  0FEF                     	;# 
  2313  0000                     	;# 
  2314  0001                     	;# 
  2315  0002                     	;# 
  2316  0003                     	;# 
  2317  0004                     	;# 
  2318  0005                     	;# 
  2319  0006                     	;# 
  2320  0007                     	;# 
  2321  0008                     	;# 
  2322  0009                     	;# 
  2323  000A                     	;# 
  2324  000B                     	;# 
  2325  000C                     	;# 
  2326  000D                     	;# 
  2327  000E                     	;# 
  2328  0010                     	;# 
  2329  0011                     	;# 
  2330  0012                     	;# 
  2331  0013                     	;# 
  2332  0014                     	;# 
  2333  0015                     	;# 
  2334  0016                     	;# 
  2335  0017                     	;# 
  2336  0018                     	;# 
  2337  0018                     	;# 
  2338  0019                     	;# 
  2339  001A                     	;# 
  2340  001B                     	;# 
  2341  001C                     	;# 
  2342  001C                     	;# 
  2343  001D                     	;# 
  2344  001E                     	;# 
  2345  001F                     	;# 
  2346  008C                     	;# 
  2347  008D                     	;# 
  2348  008E                     	;# 
  2349  0090                     	;# 
  2350  0091                     	;# 
  2351  0092                     	;# 
  2352  0093                     	;# 
  2353  0094                     	;# 
  2354  0095                     	;# 
  2355  0096                     	;# 
  2356  0097                     	;# 
  2357  0098                     	;# 
  2358  0099                     	;# 
  2359  009A                     	;# 
  2360  009B                     	;# 
  2361  009C                     	;# 
  2362  009D                     	;# 
  2363  009E                     	;# 
  2364  009F                     	;# 
  2365  010C                     	;# 
  2366  010D                     	;# 
  2367  010E                     	;# 
  2368  0111                     	;# 
  2369  0112                     	;# 
  2370  0113                     	;# 
  2371  0114                     	;# 
  2372  0115                     	;# 
  2373  0116                     	;# 
  2374  0117                     	;# 
  2375  0118                     	;# 
  2376  0119                     	;# 
  2377  011A                     	;# 
  2378  011B                     	;# 
  2379  011C                     	;# 
  2380  011D                     	;# 
  2381  018C                     	;# 
  2382  018D                     	;# 
  2383  018E                     	;# 
  2384  0191                     	;# 
  2385  0191                     	;# 
  2386  0192                     	;# 
  2387  0193                     	;# 
  2388  0193                     	;# 
  2389  0194                     	;# 
  2390  0195                     	;# 
  2391  0196                     	;# 
  2392  0197                     	;# 
  2393  0199                     	;# 
  2394  0199                     	;# 
  2395  0199                     	;# 
  2396  019A                     	;# 
  2397  019A                     	;# 
  2398  019A                     	;# 
  2399  019B                     	;# 
  2400  019B                     	;# 
  2401  019B                     	;# 
  2402  019B                     	;# 
  2403  019B                     	;# 
  2404  019C                     	;# 
  2405  019C                     	;# 
  2406  019C                     	;# 
  2407  019D                     	;# 
  2408  019D                     	;# 
  2409  019D                     	;# 
  2410  019E                     	;# 
  2411  019E                     	;# 
  2412  019E                     	;# 
  2413  019F                     	;# 
  2414  019F                     	;# 
  2415  019F                     	;# 
  2416  019F                     	;# 
  2417  019F                     	;# 
  2418  020C                     	;# 
  2419  020D                     	;# 
  2420  020E                     	;# 
  2421  0210                     	;# 
  2422  0211                     	;# 
  2423  0211                     	;# 
  2424  0212                     	;# 
  2425  0212                     	;# 
  2426  0213                     	;# 
  2427  0213                     	;# 
  2428  0214                     	;# 
  2429  0214                     	;# 
  2430  0215                     	;# 
  2431  0215                     	;# 
  2432  0215                     	;# 
  2433  0215                     	;# 
  2434  0216                     	;# 
  2435  0216                     	;# 
  2436  0217                     	;# 
  2437  0217                     	;# 
  2438  021B                     	;# 
  2439  021C                     	;# 
  2440  021D                     	;# 
  2441  021E                     	;# 
  2442  021F                     	;# 
  2443  028C                     	;# 
  2444  028D                     	;# 
  2445  028E                     	;# 
  2446  0291                     	;# 
  2447  0291                     	;# 
  2448  0292                     	;# 
  2449  0293                     	;# 
  2450  0294                     	;# 
  2451  0295                     	;# 
  2452  0295                     	;# 
  2453  0296                     	;# 
  2454  0297                     	;# 
  2455  0298                     	;# 
  2456  0299                     	;# 
  2457  0299                     	;# 
  2458  029A                     	;# 
  2459  029B                     	;# 
  2460  029C                     	;# 
  2461  029E                     	;# 
  2462  029F                     	;# 
  2463  030C                     	;# 
  2464  030D                     	;# 
  2465  030E                     	;# 
  2466  0315                     	;# 
  2467  0316                     	;# 
  2468  0317                     	;# 
  2469  0318                     	;# 
  2470  0319                     	;# 
  2471  031B                     	;# 
  2472  031C                     	;# 
  2473  031D                     	;# 
  2474  031E                     	;# 
  2475  031F                     	;# 
  2476  038C                     	;# 
  2477  038D                     	;# 
  2478  038E                     	;# 
  2479  0390                     	;# 
  2480  0391                     	;# 
  2481  0392                     	;# 
  2482  0393                     	;# 
  2483  0394                     	;# 
  2484  0395                     	;# 
  2485  0396                     	;# 
  2486  0397                     	;# 
  2487  0398                     	;# 
  2488  0399                     	;# 
  2489  039D                     	;# 
  2490  039E                     	;# 
  2491  039F                     	;# 
  2492  040D                     	;# 
  2493  040F                     	;# 
  2494  040F                     	;# 
  2495  0410                     	;# 
  2496  0411                     	;# 
  2497  0412                     	;# 
  2498  0413                     	;# 
  2499  0413                     	;# 
  2500  0414                     	;# 
  2501  0414                     	;# 
  2502  0415                     	;# 
  2503  0416                     	;# 
  2504  0417                     	;# 
  2505  0418                     	;# 
  2506  041A                     	;# 
  2507  041A                     	;# 
  2508  041B                     	;# 
  2509  041B                     	;# 
  2510  041C                     	;# 
  2511  041D                     	;# 
  2512  041E                     	;# 
  2513  041F                     	;# 
  2514  048E                     	;# 
  2515  048E                     	;# 
  2516  048F                     	;# 
  2517  0490                     	;# 
  2518  0491                     	;# 
  2519  0492                     	;# 
  2520  0493                     	;# 
  2521  0493                     	;# 
  2522  0494                     	;# 
  2523  0494                     	;# 
  2524  0495                     	;# 
  2525  0496                     	;# 
  2526  0497                     	;# 
  2527  0498                     	;# 
  2528  049A                     	;# 
  2529  049A                     	;# 
  2530  049B                     	;# 
  2531  049B                     	;# 
  2532  049C                     	;# 
  2533  049D                     	;# 
  2534  049E                     	;# 
  2535  049F                     	;# 
  2536  050F                     	;# 
  2537  0510                     	;# 
  2538  0511                     	;# 
  2539  0512                     	;# 
  2540  0513                     	;# 
  2541  0514                     	;# 
  2542  0515                     	;# 
  2543  0516                     	;# 
  2544  0517                     	;# 
  2545  0518                     	;# 
  2546  0519                     	;# 
  2547  051A                     	;# 
  2548  058D                     	;# 
  2549  058E                     	;# 
  2550  058F                     	;# 
  2551  058F                     	;# 
  2552  058F                     	;# 
  2553  0590                     	;# 
  2554  0590                     	;# 
  2555  0591                     	;# 
  2556  0592                     	;# 
  2557  0592                     	;# 
  2558  0592                     	;# 
  2559  0593                     	;# 
  2560  0593                     	;# 
  2561  0594                     	;# 
  2562  0595                     	;# 
  2563  0595                     	;# 
  2564  0596                     	;# 
  2565  0597                     	;# 
  2566  0597                     	;# 
  2567  0598                     	;# 
  2568  0599                     	;# 
  2569  0599                     	;# 
  2570  0599                     	;# 
  2571  059A                     	;# 
  2572  059A                     	;# 
  2573  059E                     	;# 
  2574  059F                     	;# 
  2575  059F                     	;# 
  2576  0614                     	;# 
  2577  0614                     	;# 
  2578  0615                     	;# 
  2579  0616                     	;# 
  2580  0617                     	;# 
  2581  0617                     	;# 
  2582  0618                     	;# 
  2583  0619                     	;# 
  2584  061A                     	;# 
  2585  061A                     	;# 
  2586  061B                     	;# 
  2587  061C                     	;# 
  2588  068D                     	;# 
  2589  068E                     	;# 
  2590  068F                     	;# 
  2591  0690                     	;# 
  2592  0691                     	;# 
  2593  0692                     	;# 
  2594  0693                     	;# 
  2595  0694                     	;# 
  2596  0695                     	;# 
  2597  0696                     	;# 
  2598  0697                     	;# 
  2599  0698                     	;# 
  2600  0699                     	;# 
  2601  069A                     	;# 
  2602  069B                     	;# 
  2603  069C                     	;# 
  2604  069D                     	;# 
  2605  069E                     	;# 
  2606  069F                     	;# 
  2607  070D                     	;# 
  2608  070E                     	;# 
  2609  070F                     	;# 
  2610  0710                     	;# 
  2611  0711                     	;# 
  2612  0712                     	;# 
  2613  0713                     	;# 
  2614  0714                     	;# 
  2615  0715                     	;# 
  2616  0716                     	;# 
  2617  0717                     	;# 
  2618  0718                     	;# 
  2619  0719                     	;# 
  2620  071A                     	;# 
  2621  071B                     	;# 
  2622  071C                     	;# 
  2623  071D                     	;# 
  2624  071E                     	;# 
  2625  071F                     	;# 
  2626  078E                     	;# 
  2627  078F                     	;# 
  2628  0790                     	;# 
  2629  0791                     	;# 
  2630  0792                     	;# 
  2631  0793                     	;# 
  2632  0794                     	;# 
  2633  0795                     	;# 
  2634  0796                     	;# 
  2635  0797                     	;# 
  2636  0798                     	;# 
  2637  0799                     	;# 
  2638  079A                     	;# 
  2639  079B                     	;# 
  2640  079C                     	;# 
  2641  079D                     	;# 
  2642  079E                     	;# 
  2643  079F                     	;# 
  2644  080D                     	;# 
  2645  080E                     	;# 
  2646  080F                     	;# 
  2647  0810                     	;# 
  2648  0811                     	;# 
  2649  0812                     	;# 
  2650  0813                     	;# 
  2651  0814                     	;# 
  2652  0815                     	;# 
  2653  0816                     	;# 
  2654  0817                     	;# 
  2655  0818                     	;# 
  2656  0819                     	;# 
  2657  081A                     	;# 
  2658  081B                     	;# 
  2659  081C                     	;# 
  2660  081D                     	;# 
  2661  081E                     	;# 
  2662  081F                     	;# 
  2663  090C                     	;# 
  2664  090D                     	;# 
  2665  090E                     	;# 
  2666  090F                     	;# 
  2667  0910                     	;# 
  2668  0911                     	;# 
  2669  0912                     	;# 
  2670  0913                     	;# 
  2671  0914                     	;# 
  2672  0915                     	;# 
  2673  0916                     	;# 
  2674  0917                     	;# 
  2675  0D8E                     	;# 
  2676  0D8F                     	;# 
  2677  0D90                     	;# 
  2678  0D91                     	;# 
  2679  0D91                     	;# 
  2680  0D92                     	;# 
  2681  0D93                     	;# 
  2682  0D93                     	;# 
  2683  0D94                     	;# 
  2684  0D95                     	;# 
  2685  0D95                     	;# 
  2686  0D96                     	;# 
  2687  0D97                     	;# 
  2688  0D97                     	;# 
  2689  0D98                     	;# 
  2690  0D99                     	;# 
  2691  0D99                     	;# 
  2692  0D9A                     	;# 
  2693  0D9B                     	;# 
  2694  0D9C                     	;# 
  2695  0D9C                     	;# 
  2696  0D9D                     	;# 
  2697  0D9D                     	;# 
  2698  0D9E                     	;# 
  2699  0D9F                     	;# 
  2700  0DA0                     	;# 
  2701  0DA1                     	;# 
  2702  0DA1                     	;# 
  2703  0DA2                     	;# 
  2704  0DA3                     	;# 
  2705  0DA3                     	;# 
  2706  0DA4                     	;# 
  2707  0DA5                     	;# 
  2708  0DA5                     	;# 
  2709  0DA6                     	;# 
  2710  0DA7                     	;# 
  2711  0DA7                     	;# 
  2712  0DA8                     	;# 
  2713  0DA9                     	;# 
  2714  0DA9                     	;# 
  2715  0DAA                     	;# 
  2716  0DAB                     	;# 
  2717  0DAC                     	;# 
  2718  0DAC                     	;# 
  2719  0DAD                     	;# 
  2720  0DAD                     	;# 
  2721  0DAE                     	;# 
  2722  0DAF                     	;# 
  2723  0DB0                     	;# 
  2724  0DB1                     	;# 
  2725  0DB1                     	;# 
  2726  0DB2                     	;# 
  2727  0DB3                     	;# 
  2728  0DB3                     	;# 
  2729  0DB4                     	;# 
  2730  0DB5                     	;# 
  2731  0DB5                     	;# 
  2732  0DB6                     	;# 
  2733  0DB7                     	;# 
  2734  0DB7                     	;# 
  2735  0DB8                     	;# 
  2736  0DB9                     	;# 
  2737  0DB9                     	;# 
  2738  0DBA                     	;# 
  2739  0DBB                     	;# 
  2740  0DBC                     	;# 
  2741  0DBC                     	;# 
  2742  0DBD                     	;# 
  2743  0DBD                     	;# 
  2744  0DBE                     	;# 
  2745  0DBF                     	;# 
  2746  0DC0                     	;# 
  2747  0E0C                     	;# 
  2748  0E0D                     	;# 
  2749  0E0E                     	;# 
  2750  0E0F                     	;# 
  2751  0E10                     	;# 
  2752  0E11                     	;# 
  2753  0E12                     	;# 
  2754  0E13                     	;# 
  2755  0E14                     	;# 
  2756  0E15                     	;# 
  2757  0E15                     	;# 
  2758  0E15                     	;# 
  2759  0E16                     	;# 
  2760  0E16                     	;# 
  2761  0E16                     	;# 
  2762  0E17                     	;# 
  2763  0E17                     	;# 
  2764  0E17                     	;# 
  2765  0E18                     	;# 
  2766  0E18                     	;# 
  2767  0E18                     	;# 
  2768  0E19                     	;# 
  2769  0E1A                     	;# 
  2770  0E1B                     	;# 
  2771  0E1D                     	;# 
  2772  0E1E                     	;# 
  2773  0E1F                     	;# 
  2774  0E21                     	;# 
  2775  0E22                     	;# 
  2776  0E23                     	;# 
  2777  0E24                     	;# 
  2778  0E25                     	;# 
  2779  0E26                     	;# 
  2780  0E27                     	;# 
  2781  0E28                     	;# 
  2782  0E29                     	;# 
  2783  0E2D                     	;# 
  2784  0E2E                     	;# 
  2785  0E2F                     	;# 
  2786  0E30                     	;# 
  2787  0E31                     	;# 
  2788  0E32                     	;# 
  2789  0E35                     	;# 
  2790  0E36                     	;# 
  2791  0E37                     	;# 
  2792  0E38                     	;# 
  2793  0E39                     	;# 
  2794  0E3A                     	;# 
  2795  0E3B                     	;# 
  2796  0E3C                     	;# 
  2797  0E3D                     	;# 
  2798  0E3E                     	;# 
  2799  0E90                     	;# 
  2800  0E91                     	;# 
  2801  0E92                     	;# 
  2802  0E93                     	;# 
  2803  0E94                     	;# 
  2804  0E95                     	;# 
  2805  0E96                     	;# 
  2806  0E97                     	;# 
  2807  0E98                     	;# 
  2808  0E99                     	;# 
  2809  0E9A                     	;# 
  2810  0E9B                     	;# 
  2811  0E9C                     	;# 
  2812  0E9D                     	;# 
  2813  0E9E                     	;# 
  2814  0E9F                     	;# 
  2815  0EA0                     	;# 
  2816  0EA1                     	;# 
  2817  0EA2                     	;# 
  2818  0EA3                     	;# 
  2819  0EA4                     	;# 
  2820  0EA5                     	;# 
  2821  0EA6                     	;# 
  2822  0EA7                     	;# 
  2823  0F0F                     	;# 
  2824  0F10                     	;# 
  2825  0F11                     	;# 
  2826  0F12                     	;# 
  2827  0F13                     	;# 
  2828  0F14                     	;# 
  2829  0F15                     	;# 
  2830  0F16                     	;# 
  2831  0F17                     	;# 
  2832  0F18                     	;# 
  2833  0F19                     	;# 
  2834  0F1A                     	;# 
  2835  0F1B                     	;# 
  2836  0F1C                     	;# 
  2837  0F1D                     	;# 
  2838  0F1E                     	;# 
  2839  0F1F                     	;# 
  2840  0F20                     	;# 
  2841  0F21                     	;# 
  2842  0F22                     	;# 
  2843  0F23                     	;# 
  2844  0F24                     	;# 
  2845  0F25                     	;# 
  2846  0F26                     	;# 
  2847  0F27                     	;# 
  2848  0F28                     	;# 
  2849  0F29                     	;# 
  2850  0F2A                     	;# 
  2851  0F2B                     	;# 
  2852  0F2C                     	;# 
  2853  0F2D                     	;# 
  2854  0F2E                     	;# 
  2855  0F2F                     	;# 
  2856  0F30                     	;# 
  2857  0F31                     	;# 
  2858  0F32                     	;# 
  2859  0F33                     	;# 
  2860  0F34                     	;# 
  2861  0F35                     	;# 
  2862  0F36                     	;# 
  2863  0F37                     	;# 
  2864  0FE4                     	;# 
  2865  0FE5                     	;# 
  2866  0FE6                     	;# 
  2867  0FE7                     	;# 
  2868  0FE8                     	;# 
  2869  0FE9                     	;# 
  2870  0FEA                     	;# 
  2871  0FEB                     	;# 
  2872  0FED                     	;# 
  2873  0FEE                     	;# 
  2874  0FEF                     	;# 
  2875                           
  2876                           	psect	idataBANK0
  2877  02B4                     __pidataBANK0:	
  2878                           
  2879                           ;initializer for _k
  2880  02B4  340D               	retlw	13
  2881  000B                     _INTCONbits	set	11
  2882  0011                     _PIR1bits	set	17
  2883  008E                     _TRISCbits	set	142
  2884  0091                     _PIE1bits	set	145
  2885  008C                     _TRISAbits	set	140
  2886  008E                     _TRISC	set	142
  2887  008D                     _TRISB	set	141
  2888  008C                     _TRISA	set	140
  2889  009B                     _OSCCONbits	set	155
  2890  010E                     _LATC	set	270
  2891  010D                     _LATB	set	269
  2892  010C                     _LATA	set	268
  2893  019B                     _SP1BRG	set	411
  2894  019E                     _TX1STA	set	414
  2895  019D                     _RC1STA	set	413
  2896  019F                     _BAUD1CON	set	415
  2897  019D                     _RC1STAbits	set	413
  2898  019E                     _TX1STAbits	set	414
  2899  018C                     _ANSELA	set	396
  2900  018D                     _ANSELB	set	397
  2901  018E                     _ANSELC	set	398
  2902  019A                     _TX1REG	set	410
  2903  0199                     _RC1REG	set	409
  2904  020C                     _WPUA	set	524
  2905  0299                     _CCPR7	set	665
  2906  0295                     _CCPR2	set	661
  2907  0291                     _CCPR1	set	657
  2908  029B                     _CCP7CON	set	667
  2909  0297                     _CCP2CON	set	663
  2910  0293                     _CCP1CON	set	659
  2911  029E                     _CCPTMRS1bits	set	670
  2912  048E                     _ADRES	set	1166
  2913  0490                     _ADCON0	set	1168
  2914  0491                     _ADCON1	set	1169
  2915  0495                     _T2CON	set	1173
  2916  0493                     _T2TMR	set	1171
  2917  0498                     _T2RST	set	1176
  2918  0496                     _T2HLT	set	1174
  2919  0497                     _T2CLKCON	set	1175
  2920  0494                     _T2PR	set	1172
  2921  0490                     _ADCON0bits	set	1168
  2922  058F                     _DAC1REF	set	1423
  2923  058D                     _DACLDbits	set	1421
  2924  058E                     _DAC1CON0	set	1422
  2925  0E3D                     _RXPPS	set	3645
  2926  0EA6                     _RC6PPS	set	3750
  2927  0E9B                     _RB3PPS	set	3739
  2928  0EA1                     _RC1PPS	set	3745
  2929  0E9D                     _RB5PPS	set	3741
  2930  0E97                     _RA7PPS	set	3735
  2931                           
  2932                           	psect	stringtext1
  2933  02B5                     __pstringtext1:	
  2934  02B5                     STR_1:	
  2935  02B5  3400               	retlw	0
  2936                           
  2937                           	psect	stringtext2
  2938  0000                     __pstringtext2:	
  2939                           
  2940                           ; #config settings
  2941  0000                     
  2942                           	psect	cinit
  2943  0031                     start_initialization:	
  2944  0031                     __initialization:	
  2945                           
  2946                           ; Initialize objects allocated to BANK0
  2947  0031  3182  22B4  3180   	fcall	__pidataBANK0	;fetch initializer
  2948  0034  00B5               	movwf	__pdataBANK0& (0+127)
  2949                           
  2950                           ; Clear objects allocated to COMMON
  2951  0035  01FC               	clrf	__pbssCOMMON& (0+127)
  2952                           
  2953                           ; Clear objects allocated to BANK0
  2954  0036  01A0               	clrf	__pbssBANK0& (0+127)
  2955  0037  01A1               	clrf	(__pbssBANK0+1)& (0+127)
  2956  0038  01A2               	clrf	(__pbssBANK0+2)& (0+127)
  2957  0039  01A3               	clrf	(__pbssBANK0+3)& (0+127)
  2958  003A  01A4               	clrf	(__pbssBANK0+4)& (0+127)
  2959  003B  01A5               	clrf	(__pbssBANK0+5)& (0+127)
  2960  003C  01A6               	clrf	(__pbssBANK0+6)& (0+127)
  2961  003D  01A7               	clrf	(__pbssBANK0+7)& (0+127)
  2962  003E  01A8               	clrf	(__pbssBANK0+8)& (0+127)
  2963  003F  01A9               	clrf	(__pbssBANK0+9)& (0+127)
  2964  0040  01AA               	clrf	(__pbssBANK0+10)& (0+127)
  2965  0041                     end_of_initialization:	
  2966                           ;End of C runtime variable initialization code
  2967                           
  2968  0041                     __end_of__initialization:	
  2969  0041  107E               	bcf	int$flags,0	;clear compiler interrupt flag (level 1)
  2970  0042  0020               	movlb	0
  2971  0043  3180  2845         	ljmp	_main	;jump to C main() function
  2972                           
  2973                           	psect	bssCOMMON
  2974  007C                     __pbssCOMMON:	
  2975  007C                     _n:	
  2976  007C                     	ds	1
  2977                           
  2978                           	psect	bssBANK0
  2979  0020                     __pbssBANK0:	
  2980  0020                     _ret:	
  2981  0020                     	ds	2
  2982  0022                     _enter:	
  2983  0022                     	ds	1
  2984  0023                     _palabra:	
  2985  0023                     	ds	8
  2986                           
  2987                           	psect	dataBANK0
  2988  0035                     __pdataBANK0:	
  2989  0035                     _k:	
  2990  0035                     	ds	1
  2991                           
  2992                           	psect	cstackCOMMON
  2993  0070                     __pcstackCOMMON:	
  2994  0070                     ?_isdigit:	
  2995  0070                     ?_ConfigureOscillator:	
  2996                           ; 1 bit 
  2997                           
  2998  0070                     ?_InitApp:	
  2999                           ; 1 bytes @ 0x0
  3000                           
  3001  0070                     ?_autofocus:	
  3002                           ; 1 bytes @ 0x0
  3003                           
  3004  0070                     ?_CCP_Config:	
  3005                           ; 1 bytes @ 0x0
  3006                           
  3007  0070                     ?_PWM_Config:	
  3008                           ; 1 bytes @ 0x0
  3009                           
  3010  0070                     ?_UART_Config:	
  3011                           ; 1 bytes @ 0x0
  3012                           
  3013  0070                     ?_DAC_Config:	
  3014                           ; 1 bytes @ 0x0
  3015                           
  3016  0070                     ?_ADC_Config:	
  3017                           ; 1 bytes @ 0x0
  3018                           
  3019  0070                     ?_isr:	
  3020                           ; 1 bytes @ 0x0
  3021                           
  3022  0070                     ??_isr:	
  3023                           ; 1 bytes @ 0x0
  3024                           
  3025  0070                     ?_main:	
  3026                           ; 1 bytes @ 0x0
  3027                           
  3028                           
  3029                           ; 1 bytes @ 0x0
  3030  0070                     	ds	1
  3031  0071                     ??_ConfigureOscillator:	
  3032  0071                     ?_duty_PWM:	
  3033                           ; 1 bytes @ 0x1
  3034                           
  3035  0071                     ?_DAC_Set:	
  3036                           ; 1 bytes @ 0x1
  3037                           
  3038  0071                     ?_strcpy:	
  3039                           ; 1 bytes @ 0x1
  3040                           
  3041  0071                     ??_CCP_Config:	
  3042                           ; 1 bytes @ 0x1
  3043                           
  3044  0071                     ??_PWM_Config:	
  3045                           ; 1 bytes @ 0x1
  3046                           
  3047  0071                     ??_UART_Config:	
  3048                           ; 1 bytes @ 0x1
  3049                           
  3050  0071                     ??_ADC_Config:	
  3051                           ; 1 bytes @ 0x1
  3052                           
  3053  0071                     ??_isdigit:	
  3054                           ; 1 bytes @ 0x1
  3055                           
  3056  0071                     ?___wmul:	
  3057                           ; 1 bytes @ 0x1
  3058                           
  3059  0071                     _isdigit$864:	
  3060                           ; 2 bytes @ 0x1
  3061                           
  3062  0071                     duty_PWM@valor:	
  3063                           ; 1 bytes @ 0x1
  3064                           
  3065  0071                     DAC_Set@DACvalue:	
  3066                           ; 2 bytes @ 0x1
  3067                           
  3068  0071                     ___wmul@multiplier:	
  3069                           ; 2 bytes @ 0x1
  3070                           
  3071  0071                     strcpy@from:	
  3072                           ; 2 bytes @ 0x1
  3073                           
  3074                           
  3075                           ; 2 bytes @ 0x1
  3076  0071                     	ds	1
  3077  0072                     isdigit@c:	
  3078                           
  3079                           ; 1 bytes @ 0x2
  3080  0072                     	ds	1
  3081  0073                     ??_InitApp:	
  3082  0073                     ??_DAC_Set:	
  3083                           ; 1 bytes @ 0x3
  3084                           
  3085  0073                     ??_strcpy:	
  3086                           ; 1 bytes @ 0x3
  3087                           
  3088  0073                     ??_DAC_Config:	
  3089                           ; 1 bytes @ 0x3
  3090                           
  3091  0073                     duty_PWM@canal:	
  3092                           ; 1 bytes @ 0x3
  3093                           
  3094  0073                     ___wmul@multiplicand:	
  3095                           ; 1 bytes @ 0x3
  3096                           
  3097                           
  3098                           ; 2 bytes @ 0x3
  3099  0073                     	ds	1
  3100  0074                     ??_duty_PWM:	
  3101  0074                     ??_autofocus:	
  3102                           ; 1 bytes @ 0x4
  3103                           
  3104  0074                     strcpy@to:	
  3105                           ; 1 bytes @ 0x4
  3106                           
  3107                           
  3108                           ; 1 bytes @ 0x4
  3109  0074                     	ds	1
  3110  0075                     ??___wmul:	
  3111  0075                     strcpy@cp:	
  3112                           ; 1 bytes @ 0x5
  3113                           
  3114  0075                     ___wmul@product:	
  3115                           ; 1 bytes @ 0x5
  3116                           
  3117                           
  3118                           ; 2 bytes @ 0x5
  3119  0075                     	ds	1
  3120  0076                     autofocus@ADC:	
  3121                           
  3122                           ; 2 bytes @ 0x6
  3123  0076                     	ds	1
  3124  0077                     ?_atoi:	
  3125                           
  3126                           ; 2 bytes @ 0x7
  3127  0077                     	ds	1
  3128  0078                     autofocus@dutyaf:	
  3129                           
  3130                           ; 2 bytes @ 0x8
  3131  0078                     	ds	2
  3132  007A                     autofocus@i2:	
  3133                           
  3134                           ; 2 bytes @ 0xA
  3135  007A                     	ds	2
  3136                           
  3137                           	psect	cstackBANK0
  3138  002B                     __pcstackBANK0:	
  3139  002B                     ??_atoi:	
  3140                           
  3141                           ; 1 bytes @ 0x0
  3142  002B                     	ds	4
  3143  002F                     atoi@sign:	
  3144                           
  3145                           ; 1 bytes @ 0x4
  3146  002F                     	ds	1
  3147  0030                     atoi@a:	
  3148                           
  3149                           ; 2 bytes @ 0x5
  3150  0030                     	ds	2
  3151  0032                     atoi@s:	
  3152                           
  3153                           ; 1 bytes @ 0x7
  3154  0032                     	ds	1
  3155  0033                     ??_main:	
  3156                           
  3157                           ; 1 bytes @ 0x8
  3158  0033                     	ds	2
  3159                           
  3160                           	psect	maintext
  3161  0045                     __pmaintext:	
  3162 ;;
  3163 ;;Main: autosize = 0, tempsize = 2, incstack = 0, save=0
  3164 ;;
  3165 ;; *************** function _main *****************
  3166 ;; Defined at:
  3167 ;;		line 41 in file "main.c"
  3168 ;; Parameters:    Size  Location     Type
  3169 ;;		None
  3170 ;; Auto vars:     Size  Location     Type
  3171 ;;		None
  3172 ;; Return value:  Size  Location     Type
  3173 ;;                  1    wreg      void 
  3174 ;; Registers used:
  3175 ;;		wreg, fsr0l, fsr0h, fsr1l, fsr1h, status,2, status,0, pclath, cstack
  3176 ;; Tracked objects:
  3177 ;;		On entry : B1F/0
  3178 ;;		On exit  : 0/0
  3179 ;;		Unchanged: 0/0
  3180 ;; Data sizes:     COMMON   BANK0   BANK1   BANK2   BANK3   BANK4   BANK5   BANK6   BANK7   BANK8   BANK9  BANK10  BANK1
      +1  BANK12
  3181 ;;      Params:         0       0       0       0       0       0       0       0       0       0       0       0       
      +0       0
  3182 ;;      Locals:         0       0       0       0       0       0       0       0       0       0       0       0       
      +0       0
  3183 ;;      Temps:          0       2       0       0       0       0       0       0       0       0       0       0       
      +0       0
  3184 ;;      Totals:         0       2       0       0       0       0       0       0       0       0       0       0       
      +0       0
  3185 ;;Total ram usage:        2 bytes
  3186 ;; Hardware stack levels required when called:    4
  3187 ;; This function calls:
  3188 ;;		_ConfigureOscillator
  3189 ;;		_DAC_Set
  3190 ;;		_InitApp
  3191 ;;		_atoi
  3192 ;;		_autofocus
  3193 ;;		_duty_PWM
  3194 ;;		_strcpy
  3195 ;; This function is called by:
  3196 ;;		Startup code after reset
  3197 ;; This function uses a non-reentrant model
  3198 ;;
  3199                           
  3200                           
  3201                           ;psect for function _main
  3202  0045                     _main:	
  3203  0045                     l1378:	
  3204                           ;incstack = 0
  3205                           ; Regs used in _main: [wreg-fsr1h+status,2+status,0+pclath+cstack]
  3206                           
  3207                           
  3208                           ;main.c: 43: ConfigureOscillator();
  3209  0045  3182  22A4  3180   	fcall	_ConfigureOscillator
  3210                           
  3211                           ;main.c: 46: InitApp();
  3212  0048  3181  21A4  3180   	fcall	_InitApp
  3213  004B                     l1380:	
  3214                           
  3215                           ;main.c: 58: _delay((unsigned long)((250)*(32000000/4000.0)));
  3216  004B  300B               	movlw	11
  3217  004C  0020               	movlb	0	; select bank0
  3218  004D  00B4               	movwf	??_main+1
  3219  004E  3026               	movlw	38
  3220  004F  00B3               	movwf	??_main
  3221  0050  305D               	movlw	93
  3222  0051                     u717:	
  3223  0051  0B89               	decfsz	9,f
  3224  0052  2851               	goto	u717
  3225  0053  0BB3               	decfsz	??_main,f
  3226  0054  2851               	goto	u717
  3227  0055  0BB4               	decfsz	??_main+1,f
  3228  0056  2851               	goto	u717
  3229  0057  3200               	nop2
  3230  0058                     l1382:	
  3231                           
  3232                           ;main.c: 59: __nop();
  3233  0058  0000               	nop
  3234  0059                     l1384:	
  3235                           
  3236                           ;main.c: 60: if (enter) {
  3237  0059  0020               	movlb	0	; select bank0
  3238  005A  0822               	movf	_enter,w
  3239  005B  1903               	btfsc	3,2
  3240  005C  285E               	goto	u651
  3241  005D  285F               	goto	u650
  3242  005E                     u651:	
  3243  005E  284B               	goto	l1380
  3244  005F                     u650:	
  3245  005F                     l1386:	
  3246                           
  3247                           ;main.c: 61: __nop();
  3248  005F  0000               	nop
  3249  0060                     l1388:	
  3250                           
  3251                           ;main.c: 62: ret = atoi(palabra);
  3252  0060  3023               	movlw	(low (_palabra| 0))& (0+255)
  3253  0061  3180  20D1  3180   	fcall	_atoi
  3254  0064  0878               	movf	?_atoi+1,w
  3255  0065  0020               	movlb	0	; select bank0
  3256  0066  00A1               	movwf	_ret+1
  3257  0067  0877               	movf	?_atoi,w
  3258  0068  00A0               	movwf	_ret
  3259  0069                     l1390:	
  3260                           
  3261                           ;main.c: 63: __nop();
  3262  0069  0000               	nop
  3263  006A                     l1392:	
  3264                           
  3265                           ;main.c: 64: n = n - 2;
  3266  006A  087C               	movf	_n,w
  3267  006B  3EFE               	addlw	254
  3268  006C  0020               	movlb	0	; select bank0
  3269  006D  00B3               	movwf	??_main
  3270  006E  0833               	movf	??_main,w
  3271  006F  00FC               	movwf	_n
  3272  0070                     l1394:	
  3273                           
  3274                           ;main.c: 65: if (palabra[n] == 'z') {
  3275  0070  087C               	movf	_n,w
  3276  0071  3E23               	addlw	(low (_palabra| 0))& (0+255)
  3277  0072  0086               	movwf	6
  3278  0073  0187               	clrf	7
  3279  0074  307A               	movlw	122
  3280  0075  0601               	xorwf	1,w
  3281  0076  1D03               	btfss	3,2
  3282  0077  2879               	goto	u661
  3283  0078  287A               	goto	u660
  3284  0079                     u661:	
  3285  0079  2884               	goto	l1398
  3286  007A                     u660:	
  3287  007A                     l1396:	
  3288                           
  3289                           ;main.c: 66: duty_PWM(ret, 1);
  3290  007A  0821               	movf	_ret+1,w
  3291  007B  00F2               	movwf	duty_PWM@valor+1
  3292  007C  0820               	movf	_ret,w
  3293  007D  00F1               	movwf	duty_PWM@valor
  3294  007E  01F3               	clrf	duty_PWM@canal
  3295  007F  0AF3               	incf	duty_PWM@canal,f
  3296  0080  3182  2200  3180   	fcall	_duty_PWM
  3297                           
  3298                           ;main.c: 67: } else if (palabra[n] == 'y') {
  3299  0083  28BA               	goto	l1410
  3300  0084                     l1398:	
  3301  0084  087C               	movf	_n,w
  3302  0085  3E23               	addlw	(low (_palabra| 0))& (0+255)
  3303  0086  0086               	movwf	6
  3304  0087  0187               	clrf	7
  3305  0088  3079               	movlw	121
  3306  0089  0601               	xorwf	1,w
  3307  008A  1D03               	btfss	3,2
  3308  008B  288D               	goto	u671
  3309  008C  288E               	goto	u670
  3310  008D                     u671:	
  3311  008D  289A               	goto	l1402
  3312  008E                     u670:	
  3313  008E                     l1400:	
  3314                           
  3315                           ;main.c: 68: duty_PWM(ret, 2);
  3316  008E  0821               	movf	_ret+1,w
  3317  008F  00F2               	movwf	duty_PWM@valor+1
  3318  0090  0820               	movf	_ret,w
  3319  0091  00F1               	movwf	duty_PWM@valor
  3320  0092  3002               	movlw	2
  3321  0093  00B3               	movwf	??_main
  3322  0094  0833               	movf	??_main,w
  3323  0095  00F3               	movwf	duty_PWM@canal
  3324  0096  3182  2200  3180   	fcall	_duty_PWM
  3325                           
  3326                           ;main.c: 69: } else if (palabra[n] == 'a') {
  3327  0099  28BA               	goto	l1410
  3328  009A                     l1402:	
  3329  009A  087C               	movf	_n,w
  3330  009B  3E23               	addlw	(low (_palabra| 0))& (0+255)
  3331  009C  0086               	movwf	6
  3332  009D  0187               	clrf	7
  3333  009E  3061               	movlw	97
  3334  009F  0601               	xorwf	1,w
  3335  00A0  1D03               	btfss	3,2
  3336  00A1  28A3               	goto	u681
  3337  00A2  28A4               	goto	u680
  3338  00A3                     u681:	
  3339  00A3  28A8               	goto	l1406
  3340  00A4                     u680:	
  3341  00A4                     l1404:	
  3342                           
  3343                           ;main.c: 70: autofocus();
  3344  00A4  3181  214F  3180   	fcall	_autofocus
  3345                           
  3346                           ;main.c: 71: } else if (palabra[n] == 'l') {
  3347  00A7  28BA               	goto	l1410
  3348  00A8                     l1406:	
  3349  00A8  087C               	movf	_n,w
  3350  00A9  3E23               	addlw	(low (_palabra| 0))& (0+255)
  3351  00AA  0086               	movwf	6
  3352  00AB  0187               	clrf	7
  3353  00AC  306C               	movlw	108
  3354  00AD  0601               	xorwf	1,w
  3355  00AE  1D03               	btfss	3,2
  3356  00AF  28B1               	goto	u691
  3357  00B0  28B2               	goto	u690
  3358  00B1                     u691:	
  3359  00B1  28BA               	goto	l67
  3360  00B2                     u690:	
  3361  00B2                     l1408:	
  3362                           
  3363                           ;main.c: 72: DAC_Set(ret);
  3364  00B2  0821               	movf	_ret+1,w
  3365  00B3  00F2               	movwf	DAC_Set@DACvalue+1
  3366  00B4  0820               	movf	_ret,w
  3367  00B5  00F1               	movwf	DAC_Set@DACvalue
  3368  00B6  3182  22AD  3180   	fcall	_DAC_Set
  3369  00B9  28BA               	goto	l1410
  3370  00BA                     l67:	
  3371  00BA                     l1410:	
  3372                           
  3373                           ;main.c: 73: };main.c: 77: TX1REG = n + 48;
  3374  00BA  087C               	movf	_n,w
  3375  00BB  3E30               	addlw	48
  3376  00BC  0023               	movlb	3	; select bank3
  3377  00BD  009A               	movwf	26	;volatile
  3378  00BE                     l71:	
  3379                           ;main.c: 78: while (PIR1bits.TXIF == 0);
  3380                           
  3381  00BE  0020               	movlb	0	; select bank0
  3382  00BF  1E11               	btfss	17,4	;volatile
  3383  00C0  28C2               	goto	u701
  3384  00C1  28C3               	goto	u700
  3385  00C2                     u701:	
  3386  00C2  28BE               	goto	l71
  3387  00C3                     u700:	
  3388  00C3                     l1412:	
  3389                           
  3390                           ;main.c: 80: enter = 0;
  3391  00C3  01A2               	clrf	_enter
  3392  00C4                     l1414:	
  3393                           
  3394                           ;main.c: 81: __nop();
  3395  00C4  0000               	nop
  3396  00C5                     l1416:	
  3397                           
  3398                           ;main.c: 82: strcpy(palabra, "");
  3399  00C5  30B5               	movlw	low (STR_1| (0+32768))
  3400  00C6  00F1               	movwf	strcpy@from
  3401  00C7  3082               	movlw	high (STR_1| (0+32768))
  3402  00C8  00F2               	movwf	strcpy@from+1
  3403  00C9  3023               	movlw	(low (_palabra| 0))& (0+255)
  3404  00CA  3182  2242  3180   	fcall	_strcpy
  3405  00CD                     l1418:	
  3406                           
  3407                           ;main.c: 83: n = 0;
  3408  00CD  01FC               	clrf	_n
  3409  00CE  284B               	goto	l1380
  3410  00CF  3180  282F         	ljmp	start
  3411  00D1                     __end_of_main:	
  3412                           
  3413                           	psect	text1
  3414  0242                     __ptext1:	
  3415 ;; *************** function _strcpy *****************
  3416 ;; Defined at:
  3417 ;;		line 8 in file "C:\Program Files (x86)\Microchip\xc8\v2.10\pic\sources\c90\common\strcpy.c"
  3418 ;; Parameters:    Size  Location     Type
  3419 ;;  to              1    wreg     PTR unsigned char 
  3420 ;;		 -> palabra(8), 
  3421 ;;  from            2    1[COMMON] PTR const unsigned char 
  3422 ;;		 -> STR_1(1), 
  3423 ;; Auto vars:     Size  Location     Type
  3424 ;;  to              1    4[COMMON] PTR unsigned char 
  3425 ;;		 -> palabra(8), 
  3426 ;;  cp              1    5[COMMON] PTR unsigned char 
  3427 ;;		 -> palabra(8), 
  3428 ;; Return value:  Size  Location     Type
  3429 ;;                  1    wreg      PTR unsigned char 
  3430 ;; Registers used:
  3431 ;;		wreg, fsr0l, fsr0h, fsr1l, fsr1h, status,2, status,0, pclath
  3432 ;; Tracked objects:
  3433 ;;		On entry : 0/0
  3434 ;;		On exit  : 0/0
  3435 ;;		Unchanged: 0/0
  3436 ;; Data sizes:     COMMON   BANK0   BANK1   BANK2   BANK3   BANK4   BANK5   BANK6   BANK7   BANK8   BANK9  BANK10  BANK1
      +1  BANK12
  3437 ;;      Params:         2       0       0       0       0       0       0       0       0       0       0       0       
      +0       0
  3438 ;;      Locals:         2       0       0       0       0       0       0       0       0       0       0       0       
      +0       0
  3439 ;;      Temps:          1       0       0       0       0       0       0       0       0       0       0       0       
      +0       0
  3440 ;;      Totals:         5       0       0       0       0       0       0       0       0       0       0       0       
      +0       0
  3441 ;;Total ram usage:        5 bytes
  3442 ;; Hardware stack levels used:    1
  3443 ;; Hardware stack levels required when called:    1
  3444 ;; This function calls:
  3445 ;;		Nothing
  3446 ;; This function is called by:
  3447 ;;		_main
  3448 ;; This function uses a non-reentrant model
  3449 ;;
  3450                           
  3451                           
  3452                           ;psect for function _strcpy
  3453  0242                     _strcpy:	
  3454                           
  3455                           ;incstack = 0
  3456                           ; Regs used in _strcpy: [wreg-fsr1h+status,2+status,0+pclath]
  3457                           ;strcpy@to stored from wreg
  3458  0242  00F4               	movwf	strcpy@to
  3459  0243                     l1282:	
  3460  0243  0874               	movf	strcpy@to,w
  3461  0244  00F3               	movwf	??_strcpy
  3462  0245  0873               	movf	??_strcpy,w
  3463  0246  00F5               	movwf	strcpy@cp
  3464  0247  2A50               	goto	l1288
  3465  0248                     l1284:	
  3466  0248  3001               	movlw	1
  3467  0249  00F3               	movwf	??_strcpy
  3468  024A  0873               	movf	??_strcpy,w
  3469  024B  07F5               	addwf	strcpy@cp,f
  3470  024C                     l1286:	
  3471  024C  3001               	movlw	1
  3472  024D  07F1               	addwf	strcpy@from,f
  3473  024E  3000               	movlw	0
  3474  024F  3DF2               	addwfc	strcpy@from+1,f
  3475  0250                     l1288:	
  3476  0250  0875               	movf	strcpy@cp,w
  3477  0251  0086               	movwf	6
  3478  0252  0187               	clrf	7
  3479  0253  0871               	movf	strcpy@from,w
  3480  0254  0084               	movwf	4
  3481  0255  0872               	movf	strcpy@from+1,w
  3482  0256  0085               	movwf	5
  3483  0257  0800               	movf	0,w	;code access
  3484  0258  3FC0               	movwi [0]fsr1
  3485  0259  0889               	movf	9,f
  3486  025A  1D03               	btfss	3,2
  3487  025B  2A5D               	goto	u491
  3488  025C  2A5E               	goto	u490
  3489  025D                     u491:	
  3490  025D  2A48               	goto	l1284
  3491  025E                     u490:	
  3492  025E                     l764:	
  3493  025E  0008               	return
  3494  025F                     __end_of_strcpy:	
  3495                           
  3496                           	psect	text2
  3497  014F                     __ptext2:	
  3498 ;; *************** function _autofocus *****************
  3499 ;; Defined at:
  3500 ;;		line 99 in file "main.c"
  3501 ;; Parameters:    Size  Location     Type
  3502 ;;		None
  3503 ;; Auto vars:     Size  Location     Type
  3504 ;;  i2              2   10[COMMON] int 
  3505 ;;  dutyaf          2    8[COMMON] int 
  3506 ;;  ADC             2    6[COMMON] int 
  3507 ;; Return value:  Size  Location     Type
  3508 ;;                  1    wreg      void 
  3509 ;; Registers used:
  3510 ;;		wreg, status,2, status,0, pclath, cstack
  3511 ;; Tracked objects:
  3512 ;;		On entry : 0/0
  3513 ;;		On exit  : 0/0
  3514 ;;		Unchanged: 0/0
  3515 ;; Data sizes:     COMMON   BANK0   BANK1   BANK2   BANK3   BANK4   BANK5   BANK6   BANK7   BANK8   BANK9  BANK10  BANK1
      +1  BANK12
  3516 ;;      Params:         0       0       0       0       0       0       0       0       0       0       0       0       
      +0       0
  3517 ;;      Locals:         6       0       0       0       0       0       0       0       0       0       0       0       
      +0       0
  3518 ;;      Temps:          2       0       0       0       0       0       0       0       0       0       0       0       
      +0       0
  3519 ;;      Totals:         8       0       0       0       0       0       0       0       0       0       0       0       
      +0       0
  3520 ;;Total ram usage:        8 bytes
  3521 ;; Hardware stack levels used:    1
  3522 ;; Hardware stack levels required when called:    2
  3523 ;; This function calls:
  3524 ;;		_duty_PWM
  3525 ;; This function is called by:
  3526 ;;		_main
  3527 ;; This function uses a non-reentrant model
  3528 ;;
  3529                           
  3530                           
  3531                           ;psect for function _autofocus
  3532  014F                     _autofocus:	
  3533  014F                     l1268:	
  3534                           ;incstack = 0
  3535                           ; Regs used in _autofocus: [wreg+status,2+status,0+pclath+cstack]
  3536                           
  3537                           
  3538                           ;main.c: 100: int ADC = 900;
  3539  014F  3084               	movlw	132
  3540  0150  00F6               	movwf	autofocus@ADC
  3541  0151  3003               	movlw	3
  3542  0152  00F7               	movwf	autofocus@ADC+1
  3543                           
  3544                           ;main.c: 101: int dutyaf = 250;
  3545  0153  30FA               	movlw	250
  3546  0154  00F8               	movwf	autofocus@dutyaf
  3547  0155  3000               	movlw	0
  3548  0156  00F9               	movwf	autofocus@dutyaf+1
  3549                           
  3550                           ;main.c: 103: for (int i2 = 1; i2 < 1023; i2++) {
  3551  0157  3001               	movlw	1
  3552  0158  00FA               	movwf	autofocus@i2
  3553  0159  3000               	movlw	0
  3554  015A  00FB               	movwf	autofocus@i2+1
  3555  015B                     l79:	
  3556                           
  3557                           ;main.c: 105: ADCON0bits.GO = 1;
  3558  015B  0029               	movlb	9	; select bank9
  3559  015C  1490               	bsf	16,1	;volatile
  3560  015D                     l81:	
  3561                           ;main.c: 106: while (ADCON0bits.GO);
  3562                           
  3563  015D  1890               	btfsc	16,1	;volatile
  3564  015E  2960               	goto	u461
  3565  015F  2961               	goto	u460
  3566  0160                     u461:	
  3567  0160  295D               	goto	l81
  3568  0161                     u460:	
  3569  0161                     l1272:	
  3570                           
  3571                           ;main.c: 107: duty_PWM(i2, 1);
  3572  0161  087B               	movf	autofocus@i2+1,w
  3573  0162  00F2               	movwf	duty_PWM@valor+1
  3574  0163  087A               	movf	autofocus@i2,w
  3575  0164  00F1               	movwf	duty_PWM@valor
  3576  0165  01F3               	clrf	duty_PWM@canal
  3577  0166  0AF3               	incf	duty_PWM@canal,f
  3578  0167  3182  2200  3181   	fcall	_duty_PWM
  3579  016A                     l1274:	
  3580                           
  3581                           ;main.c: 108: _delay((unsigned long)((25)*(32000000/4000.0)));
  3582  016A  3002               	movlw	2
  3583  016B  00F5               	movwf	??_autofocus+1
  3584  016C  3004               	movlw	4
  3585  016D  00F4               	movwf	??_autofocus
  3586  016E  30BA               	movlw	186
  3587  016F                     u727:	
  3588  016F  0B89               	decfsz	9,f
  3589  0170  296F               	goto	u727
  3590  0171  0BF4               	decfsz	??_autofocus,f
  3591  0172  296F               	goto	u727
  3592  0173  0BF5               	decfsz	??_autofocus+1,f
  3593  0174  296F               	goto	u727
  3594  0175  3200               	nop2
  3595  0176                     l1276:	
  3596                           
  3597                           ;main.c: 110: if (ADRES < ADC) {
  3598  0176  0877               	movf	autofocus@ADC+1,w
  3599  0177  0029               	movlb	9	; select bank9
  3600  0178  020F               	subwf	15,w	;volatile
  3601  0179  1D03               	skipz
  3602  017A  297D               	goto	u475
  3603  017B  0876               	movf	autofocus@ADC,w
  3604  017C  020E               	subwf	14,w	;volatile
  3605  017D                     u475:	
  3606  017D  1803               	skipnc
  3607  017E  2980               	goto	u471
  3608  017F  2981               	goto	u470
  3609  0180                     u471:	
  3610  0180  2989               	goto	l84
  3611  0181                     u470:	
  3612  0181                     l1278:	
  3613                           
  3614                           ;main.c: 111: ADC = ADRES;
  3615  0181  080F               	movf	15,w	;volatile
  3616  0182  00F7               	movwf	autofocus@ADC+1
  3617  0183  080E               	movf	14,w	;volatile
  3618  0184  00F6               	movwf	autofocus@ADC
  3619                           
  3620                           ;main.c: 112: dutyaf = i2;
  3621  0185  087B               	movf	autofocus@i2+1,w
  3622  0186  00F9               	movwf	autofocus@dutyaf+1
  3623  0187  087A               	movf	autofocus@i2,w
  3624  0188  00F8               	movwf	autofocus@dutyaf
  3625  0189                     l84:	
  3626  0189  3001               	movlw	1
  3627  018A  07FA               	addwf	autofocus@i2,f
  3628  018B  3000               	movlw	0
  3629  018C  3DFB               	addwfc	autofocus@i2+1,f
  3630  018D  087B               	movf	autofocus@i2+1,w
  3631  018E  3A80               	xorlw	128
  3632  018F  00F4               	movwf	??_autofocus
  3633  0190  3083               	movlw	131
  3634  0191  0274               	subwf	??_autofocus,w
  3635  0192  1D03               	skipz
  3636  0193  2996               	goto	u485
  3637  0194  30FF               	movlw	255
  3638  0195  027A               	subwf	autofocus@i2,w
  3639  0196                     u485:	
  3640  0196  1C03               	skipc
  3641  0197  2999               	goto	u481
  3642  0198  299A               	goto	u480
  3643  0199                     u481:	
  3644  0199  295B               	goto	l79
  3645  019A                     u480:	
  3646  019A                     l1280:	
  3647                           
  3648                           ;main.c: 113: };main.c: 114: };main.c: 116: duty_PWM(dutyaf, 1);
  3649  019A  0879               	movf	autofocus@dutyaf+1,w
  3650  019B  00F2               	movwf	duty_PWM@valor+1
  3651  019C  0878               	movf	autofocus@dutyaf,w
  3652  019D  00F1               	movwf	duty_PWM@valor
  3653  019E  01F3               	clrf	duty_PWM@canal
  3654  019F  0AF3               	incf	duty_PWM@canal,f
  3655  01A0  3182  2200  3181   	fcall	_duty_PWM
  3656  01A3                     l85:	
  3657  01A3  0008               	return
  3658  01A4                     __end_of_autofocus:	
  3659                           
  3660                           	psect	text3
  3661  0200                     __ptext3:	
  3662 ;; *************** function _duty_PWM *****************
  3663 ;; Defined at:
  3664 ;;		line 126 in file "user.c"
  3665 ;; Parameters:    Size  Location     Type
  3666 ;;  valor           2    1[COMMON] int 
  3667 ;;  canal           1    3[COMMON] unsigned char 
  3668 ;; Auto vars:     Size  Location     Type
  3669 ;;		None
  3670 ;; Return value:  Size  Location     Type
  3671 ;;                  1    wreg      void 
  3672 ;; Registers used:
  3673 ;;		wreg, status,2, status,0
  3674 ;; Tracked objects:
  3675 ;;		On entry : 0/0
  3676 ;;		On exit  : 0/0
  3677 ;;		Unchanged: 0/0
  3678 ;; Data sizes:     COMMON   BANK0   BANK1   BANK2   BANK3   BANK4   BANK5   BANK6   BANK7   BANK8   BANK9  BANK10  BANK1
      +1  BANK12
  3679 ;;      Params:         3       0       0       0       0       0       0       0       0       0       0       0       
      +0       0
  3680 ;;      Locals:         0       0       0       0       0       0       0       0       0       0       0       0       
      +0       0
  3681 ;;      Temps:          0       0       0       0       0       0       0       0       0       0       0       0       
      +0       0
  3682 ;;      Totals:         3       0       0       0       0       0       0       0       0       0       0       0       
      +0       0
  3683 ;;Total ram usage:        3 bytes
  3684 ;; Hardware stack levels used:    1
  3685 ;; Hardware stack levels required when called:    1
  3686 ;; This function calls:
  3687 ;;		Nothing
  3688 ;; This function is called by:
  3689 ;;		_main
  3690 ;;		_autofocus
  3691 ;; This function uses a non-reentrant model
  3692 ;;
  3693                           
  3694                           
  3695                           ;psect for function _duty_PWM
  3696  0200                     _duty_PWM:	
  3697  0200                     l1090:	
  3698                           ;incstack = 0
  3699                           ; Regs used in _duty_PWM: [wreg+status,2+status,0]
  3700                           
  3701                           
  3702                           ;user.c: 128: if (canal == 1) {
  3703  0200  0373               	decf	duty_PWM@canal,w
  3704  0201  1D03               	btfss	3,2
  3705  0202  2A04               	goto	u301
  3706  0203  2A05               	goto	u300
  3707  0204                     u301:	
  3708  0204  2A0B               	goto	l1094
  3709  0205                     u300:	
  3710  0205                     l1092:	
  3711                           
  3712                           ;user.c: 129: CCPR1 = valor;
  3713  0205  0872               	movf	duty_PWM@valor+1,w
  3714  0206  0025               	movlb	5	; select bank5
  3715  0207  0092               	movwf	18	;volatile
  3716  0208  0871               	movf	duty_PWM@valor,w
  3717  0209  0091               	movwf	17	;volatile
  3718                           
  3719                           ;user.c: 130: } else if (canal == 2) {
  3720  020A  2A22               	goto	l213
  3721  020B                     l1094:	
  3722  020B  3002               	movlw	2
  3723  020C  0673               	xorwf	duty_PWM@canal,w
  3724  020D  1D03               	btfss	3,2
  3725  020E  2A10               	goto	u311
  3726  020F  2A11               	goto	u310
  3727  0210                     u311:	
  3728  0210  2A17               	goto	l1098
  3729  0211                     u310:	
  3730  0211                     l1096:	
  3731                           
  3732                           ;user.c: 131: CCPR2 = valor ;
  3733  0211  0872               	movf	duty_PWM@valor+1,w
  3734  0212  0025               	movlb	5	; select bank5
  3735  0213  0096               	movwf	22	;volatile
  3736  0214  0871               	movf	duty_PWM@valor,w
  3737  0215  0095               	movwf	21	;volatile
  3738                           
  3739                           ;user.c: 132: } else if (canal == 3) {
  3740  0216  2A22               	goto	l213
  3741  0217                     l1098:	
  3742  0217  3003               	movlw	3
  3743  0218  0673               	xorwf	duty_PWM@canal,w
  3744  0219  1D03               	btfss	3,2
  3745  021A  2A1C               	goto	u321
  3746  021B  2A1D               	goto	u320
  3747  021C                     u321:	
  3748  021C  2A22               	goto	l213
  3749  021D                     u320:	
  3750  021D                     l1100:	
  3751                           
  3752                           ;user.c: 133: CCPR7 = valor ;
  3753  021D  0872               	movf	duty_PWM@valor+1,w
  3754  021E  0025               	movlb	5	; select bank5
  3755  021F  009A               	movwf	26	;volatile
  3756  0220  0871               	movf	duty_PWM@valor,w
  3757  0221  0099               	movwf	25	;volatile
  3758  0222                     l213:	
  3759  0222  0008               	return
  3760  0223                     __end_of_duty_PWM:	
  3761                           
  3762                           	psect	text4
  3763  00D1                     __ptext4:	
  3764 ;; *************** function _atoi *****************
  3765 ;; Defined at:
  3766 ;;		line 5 in file "C:\Program Files (x86)\Microchip\xc8\v2.10\pic\sources\c90\common\atoi.c"
  3767 ;; Parameters:    Size  Location     Type
  3768 ;;  s               1    wreg     PTR const unsigned char 
  3769 ;;		 -> palabra(8), 
  3770 ;; Auto vars:     Size  Location     Type
  3771 ;;  s               1    7[BANK0 ] PTR const unsigned char 
  3772 ;;		 -> palabra(8), 
  3773 ;;  a               2    5[BANK0 ] int 
  3774 ;;  sign            1    4[BANK0 ] unsigned char 
  3775 ;; Return value:  Size  Location     Type
  3776 ;;                  2    7[COMMON] int 
  3777 ;; Registers used:
  3778 ;;		wreg, fsr1l, fsr1h, status,2, status,0, pclath, cstack
  3779 ;; Tracked objects:
  3780 ;;		On entry : 0/0
  3781 ;;		On exit  : 0/0
  3782 ;;		Unchanged: 0/0
  3783 ;; Data sizes:     COMMON   BANK0   BANK1   BANK2   BANK3   BANK4   BANK5   BANK6   BANK7   BANK8   BANK9  BANK10  BANK1
      +1  BANK12
  3784 ;;      Params:         2       0       0       0       0       0       0       0       0       0       0       0       
      +0       0
  3785 ;;      Locals:         0       4       0       0       0       0       0       0       0       0       0       0       
      +0       0
  3786 ;;      Temps:          0       4       0       0       0       0       0       0       0       0       0       0       
      +0       0
  3787 ;;      Totals:         2       8       0       0       0       0       0       0       0       0       0       0       
      +0       0
  3788 ;;Total ram usage:       10 bytes
  3789 ;; Hardware stack levels used:    1
  3790 ;; Hardware stack levels required when called:    2
  3791 ;; This function calls:
  3792 ;;		___wmul
  3793 ;;		_isdigit
  3794 ;; This function is called by:
  3795 ;;		_main
  3796 ;; This function uses a non-reentrant model
  3797 ;;
  3798                           
  3799                           
  3800                           ;psect for function _atoi
  3801  00D1                     _atoi:	
  3802                           
  3803                           ;incstack = 0
  3804                           ; Regs used in _atoi: [wreg+fsr1l+fsr1h+status,2+status,0+pclath+cstack]
  3805                           ;atoi@s stored from wreg
  3806  00D1  0020               	movlb	0	; select bank0
  3807  00D2  00B2               	movwf	atoi@s
  3808  00D3                     l1344:	
  3809  00D3  28D8               	goto	l1348
  3810  00D4                     l1346:	
  3811  00D4  3001               	movlw	1
  3812  00D5  00AB               	movwf	??_atoi
  3813  00D6  082B               	movf	??_atoi,w
  3814  00D7  07B2               	addwf	atoi@s,f
  3815  00D8                     l1348:	
  3816  00D8  0832               	movf	atoi@s,w
  3817  00D9  0086               	movwf	6
  3818  00DA  0187               	clrf	7
  3819  00DB  3020               	movlw	32
  3820  00DC  0601               	xorwf	1,w
  3821  00DD  1903               	btfsc	3,2
  3822  00DE  28E0               	goto	u591
  3823  00DF  28E1               	goto	u590
  3824  00E0                     u591:	
  3825  00E0  28D4               	goto	l1346
  3826  00E1                     u590:	
  3827  00E1                     l1350:	
  3828  00E1  0832               	movf	atoi@s,w
  3829  00E2  0086               	movwf	6
  3830  00E3  0187               	clrf	7
  3831  00E4  3009               	movlw	9
  3832  00E5  0601               	xorwf	1,w
  3833  00E6  1903               	btfsc	3,2
  3834  00E7  28E9               	goto	u601
  3835  00E8  28EA               	goto	u600
  3836  00E9                     u601:	
  3837  00E9  28D4               	goto	l1346
  3838  00EA                     u600:	
  3839  00EA                     l1352:	
  3840  00EA  01B0               	clrf	atoi@a
  3841  00EB  01B1               	clrf	atoi@a+1
  3842  00EC  01AF               	clrf	atoi@sign
  3843  00ED                     l1354:	
  3844  00ED  0832               	movf	atoi@s,w
  3845  00EE  0086               	movwf	6
  3846  00EF  0187               	clrf	7
  3847  00F0  302D               	movlw	45
  3848  00F1  0601               	xorwf	1,w
  3849  00F2  1D03               	btfss	3,2
  3850  00F3  28F5               	goto	u611
  3851  00F4  28F6               	goto	u610
  3852  00F5                     u611:	
  3853  00F5  28FF               	goto	l1358
  3854  00F6                     u610:	
  3855  00F6                     l1356:	
  3856  00F6  3001               	movlw	1
  3857  00F7  00AB               	movwf	??_atoi
  3858  00F8  082B               	movf	??_atoi,w
  3859  00F9  07AF               	addwf	atoi@sign,f
  3860  00FA  3001               	movlw	1
  3861  00FB  00AB               	movwf	??_atoi
  3862  00FC  082B               	movf	??_atoi,w
  3863  00FD  07B2               	addwf	atoi@s,f
  3864  00FE  292D               	goto	l1366
  3865  00FF                     l1358:	
  3866  00FF  0832               	movf	atoi@s,w
  3867  0100  0086               	movwf	6
  3868  0101  0187               	clrf	7
  3869  0102  302B               	movlw	43
  3870  0103  0601               	xorwf	1,w
  3871  0104  1D03               	btfss	3,2
  3872  0105  2907               	goto	u621
  3873  0106  2908               	goto	u620
  3874  0107                     u621:	
  3875  0107  292D               	goto	l1366
  3876  0108                     u620:	
  3877  0108                     l1360:	
  3878  0108  3001               	movlw	1
  3879  0109  00AB               	movwf	??_atoi
  3880  010A  082B               	movf	??_atoi,w
  3881  010B  07B2               	addwf	atoi@s,f
  3882  010C  292D               	goto	l1366
  3883  010D                     l1362:	
  3884  010D  0020               	movlb	0	; select bank0
  3885  010E  0832               	movf	atoi@s,w
  3886  010F  0086               	movwf	6
  3887  0110  0187               	clrf	7
  3888  0111  0801               	movf	1,w
  3889  0112  00AB               	movwf	??_atoi
  3890  0113  01AC               	clrf	??_atoi+1
  3891  0114  0831               	movf	atoi@a+1,w
  3892  0115  00F2               	movwf	___wmul@multiplier+1
  3893  0116  0830               	movf	atoi@a,w
  3894  0117  00F1               	movwf	___wmul@multiplier
  3895  0118  300A               	movlw	10
  3896  0119  00F3               	movwf	___wmul@multiplicand
  3897  011A  3000               	movlw	0
  3898  011B  00F4               	movwf	___wmul@multiplicand+1
  3899  011C  3182  2223  3180   	fcall	___wmul
  3900  011F  0020               	movlb	0	; select bank0
  3901  0120  082B               	movf	??_atoi,w
  3902  0121  0771               	addwf	?___wmul,w
  3903  0122  00AD               	movwf	??_atoi+2
  3904  0123  082C               	movf	??_atoi+1,w
  3905  0124  3D72               	addwfc	?___wmul+1,w
  3906  0125  00AE               	movwf	??_atoi+3
  3907  0126  082D               	movf	??_atoi+2,w
  3908  0127  3ED0               	addlw	208
  3909  0128  00B0               	movwf	atoi@a
  3910  0129  30FF               	movlw	255
  3911  012A  3D2E               	addwfc	??_atoi+3,w
  3912  012B  00B1               	movwf	atoi@a+1
  3913  012C  2908               	goto	l1360
  3914  012D                     l1366:	
  3915  012D  0832               	movf	atoi@s,w
  3916  012E  0086               	movwf	6
  3917  012F  0187               	clrf	7
  3918  0130  0801               	movf	1,w
  3919  0131  3182  227A  3180   	fcall	_isdigit
  3920  0134  1803               	btfsc	3,0
  3921  0135  2937               	goto	u631
  3922  0136  2938               	goto	u630
  3923  0137                     u631:	
  3924  0137  290D               	goto	l1362
  3925  0138                     u630:	
  3926  0138                     l1368:	
  3927  0138  0020               	movlb	0	; select bank0
  3928  0139  082F               	movf	atoi@sign,w
  3929  013A  1903               	btfsc	3,2
  3930  013B  293D               	goto	u641
  3931  013C  293E               	goto	u640
  3932  013D                     u641:	
  3933  013D  294A               	goto	l1374
  3934  013E                     u640:	
  3935  013E                     l1370:	
  3936  013E  0930               	comf	atoi@a,w
  3937  013F  00AB               	movwf	??_atoi
  3938  0140  0931               	comf	atoi@a+1,w
  3939  0141  00AC               	movwf	??_atoi+1
  3940  0142  0AAB               	incf	??_atoi,f
  3941  0143  1903               	skipnz
  3942  0144  0AAC               	incf	??_atoi+1,f
  3943  0145  082B               	movf	??_atoi,w
  3944  0146  00F7               	movwf	?_atoi
  3945  0147  082C               	movf	??_atoi+1,w
  3946  0148  00F8               	movwf	?_atoi+1
  3947  0149  294E               	goto	l753
  3948  014A                     l1374:	
  3949  014A  0831               	movf	atoi@a+1,w
  3950  014B  00F8               	movwf	?_atoi+1
  3951  014C  0830               	movf	atoi@a,w
  3952  014D  00F7               	movwf	?_atoi
  3953  014E                     l753:	
  3954  014E  0008               	return
  3955  014F                     __end_of_atoi:	
  3956                           
  3957                           	psect	text5
  3958  027A                     __ptext5:	
  3959 ;; *************** function _isdigit *****************
  3960 ;; Defined at:
  3961 ;;		line 8 in file "C:\Program Files (x86)\Microchip\xc8\v2.10\pic\sources\c90\common\isdigit.c"
  3962 ;; Parameters:    Size  Location     Type
  3963 ;;  c               1    wreg     unsigned char 
  3964 ;; Auto vars:     Size  Location     Type
  3965 ;;  c               1    2[COMMON] unsigned char 
  3966 ;; Return value:  Size  Location     Type
  3967 ;;		None               void
  3968 ;; Registers used:
  3969 ;;		wreg, status,2, status,0
  3970 ;; Tracked objects:
  3971 ;;		On entry : 0/0
  3972 ;;		On exit  : 0/0
  3973 ;;		Unchanged: 0/0
  3974 ;; Data sizes:     COMMON   BANK0   BANK1   BANK2   BANK3   BANK4   BANK5   BANK6   BANK7   BANK8   BANK9  BANK10  BANK1
      +1  BANK12
  3975 ;;      Params:         0       0       0       0       0       0       0       0       0       0       0       0       
      +0       0
  3976 ;;      Locals:         2       0       0       0       0       0       0       0       0       0       0       0       
      +0       0
  3977 ;;      Temps:          0       0       0       0       0       0       0       0       0       0       0       0       
      +0       0
  3978 ;;      Totals:         2       0       0       0       0       0       0       0       0       0       0       0       
      +0       0
  3979 ;;Total ram usage:        2 bytes
  3980 ;; Hardware stack levels used:    1
  3981 ;; Hardware stack levels required when called:    1
  3982 ;; This function calls:
  3983 ;;		Nothing
  3984 ;; This function is called by:
  3985 ;;		_atoi
  3986 ;; This function uses a non-reentrant model
  3987 ;;
  3988                           
  3989                           
  3990                           ;psect for function _isdigit
  3991  027A                     _isdigit:	
  3992                           
  3993                           ;incstack = 0
  3994                           ; Regs used in _isdigit: [wreg+status,2+status,0]
  3995                           ;isdigit@c stored from wreg
  3996  027A  00F2               	movwf	isdigit@c
  3997  027B                     l1180:	
  3998  027B  01F1               	clrf	_isdigit$864
  3999  027C                     l1182:	
  4000  027C  303A               	movlw	58
  4001  027D  0272               	subwf	isdigit@c,w
  4002  027E  1803               	skipnc
  4003  027F  2A81               	goto	u381
  4004  0280  2A82               	goto	u380
  4005  0281                     u381:	
  4006  0281  2A8A               	goto	l1188
  4007  0282                     u380:	
  4008  0282                     l1184:	
  4009  0282  3030               	movlw	48
  4010  0283  0272               	subwf	isdigit@c,w
  4011  0284  1C03               	skipc
  4012  0285  2A87               	goto	u391
  4013  0286  2A88               	goto	u390
  4014  0287                     u391:	
  4015  0287  2A8A               	goto	l1188
  4016  0288                     u390:	
  4017  0288                     l1186:	
  4018  0288  01F1               	clrf	_isdigit$864
  4019  0289  0AF1               	incf	_isdigit$864,f
  4020  028A                     l1188:	
  4021  028A  0C71               	rrf	_isdigit$864,w
  4022  028B                     l758:	
  4023  028B  0008               	return
  4024  028C                     __end_of_isdigit:	
  4025                           
  4026                           	psect	text6
  4027  0223                     __ptext6:	
  4028 ;; *************** function ___wmul *****************
  4029 ;; Defined at:
  4030 ;;		line 15 in file "C:\Program Files (x86)\Microchip\xc8\v2.10\pic\sources\c90\common\Umul16.c"
  4031 ;; Parameters:    Size  Location     Type
  4032 ;;  multiplier      2    1[COMMON] unsigned int 
  4033 ;;  multiplicand    2    3[COMMON] unsigned int 
  4034 ;; Auto vars:     Size  Location     Type
  4035 ;;  product         2    5[COMMON] unsigned int 
  4036 ;; Return value:  Size  Location     Type
  4037 ;;                  2    1[COMMON] unsigned int 
  4038 ;; Registers used:
  4039 ;;		wreg, status,2, status,0
  4040 ;; Tracked objects:
  4041 ;;		On entry : 0/0
  4042 ;;		On exit  : 0/0
  4043 ;;		Unchanged: 0/0
  4044 ;; Data sizes:     COMMON   BANK0   BANK1   BANK2   BANK3   BANK4   BANK5   BANK6   BANK7   BANK8   BANK9  BANK10  BANK1
      +1  BANK12
  4045 ;;      Params:         4       0       0       0       0       0       0       0       0       0       0       0       
      +0       0
  4046 ;;      Locals:         2       0       0       0       0       0       0       0       0       0       0       0       
      +0       0
  4047 ;;      Temps:          0       0       0       0       0       0       0       0       0       0       0       0       
      +0       0
  4048 ;;      Totals:         6       0       0       0       0       0       0       0       0       0       0       0       
      +0       0
  4049 ;;Total ram usage:        6 bytes
  4050 ;; Hardware stack levels used:    1
  4051 ;; Hardware stack levels required when called:    1
  4052 ;; This function calls:
  4053 ;;		Nothing
  4054 ;; This function is called by:
  4055 ;;		_atoi
  4056 ;; This function uses a non-reentrant model
  4057 ;;
  4058                           
  4059                           
  4060                           ;psect for function ___wmul
  4061  0223                     ___wmul:	
  4062  0223                     l1166:	
  4063                           ;incstack = 0
  4064                           ; Regs used in ___wmul: [wreg+status,2+status,0]
  4065                           
  4066  0223  01F5               	clrf	___wmul@product
  4067  0224  01F6               	clrf	___wmul@product+1
  4068  0225                     l1168:	
  4069  0225  1C71               	btfss	___wmul@multiplier,0
  4070  0226  2A28               	goto	u341
  4071  0227  2A29               	goto	u340
  4072  0228                     u341:	
  4073  0228  2A2D               	goto	l296
  4074  0229                     u340:	
  4075  0229                     l1170:	
  4076  0229  0873               	movf	___wmul@multiplicand,w
  4077  022A  07F5               	addwf	___wmul@product,f
  4078  022B  0874               	movf	___wmul@multiplicand+1,w
  4079  022C  3DF6               	addwfc	___wmul@product+1,f
  4080  022D                     l296:	
  4081  022D  3001               	movlw	1
  4082  022E                     u355:	
  4083  022E  35F3               	lslf	___wmul@multiplicand,f
  4084  022F  0DF4               	rlf	___wmul@multiplicand+1,f
  4085  0230  0B89               	decfsz	9,f
  4086  0231  2A2E               	goto	u355
  4087  0232                     l1172:	
  4088  0232  3001               	movlw	1
  4089  0233                     u365:	
  4090  0233  36F2               	lsrf	___wmul@multiplier+1,f
  4091  0234  0CF1               	rrf	___wmul@multiplier,f
  4092  0235  0B89               	decfsz	9,f
  4093  0236  2A33               	goto	u365
  4094  0237                     l1174:	
  4095  0237  0871               	movf	___wmul@multiplier,w
  4096  0238  0472               	iorwf	___wmul@multiplier+1,w
  4097  0239  1D03               	btfss	3,2
  4098  023A  2A3C               	goto	u371
  4099  023B  2A3D               	goto	u370
  4100  023C                     u371:	
  4101  023C  2A25               	goto	l1168
  4102  023D                     u370:	
  4103  023D                     l1176:	
  4104  023D  0876               	movf	___wmul@product+1,w
  4105  023E  00F2               	movwf	?___wmul+1
  4106  023F  0875               	movf	___wmul@product,w
  4107  0240  00F1               	movwf	?___wmul
  4108  0241                     l298:	
  4109  0241  0008               	return
  4110  0242                     __end_of___wmul:	
  4111                           
  4112                           	psect	text7
  4113  01A4                     __ptext7:	
  4114 ;; *************** function _InitApp *****************
  4115 ;; Defined at:
  4116 ;;		line 23 in file "user.c"
  4117 ;; Parameters:    Size  Location     Type
  4118 ;;		None
  4119 ;; Auto vars:     Size  Location     Type
  4120 ;;		None
  4121 ;; Return value:  Size  Location     Type
  4122 ;;                  1    wreg      void 
  4123 ;; Registers used:
  4124 ;;		wreg, status,2, status,0, pclath, cstack
  4125 ;; Tracked objects:
  4126 ;;		On entry : 0/0
  4127 ;;		On exit  : 0/0
  4128 ;;		Unchanged: 0/0
  4129 ;; Data sizes:     COMMON   BANK0   BANK1   BANK2   BANK3   BANK4   BANK5   BANK6   BANK7   BANK8   BANK9  BANK10  BANK1
      +1  BANK12
  4130 ;;      Params:         0       0       0       0       0       0       0       0       0       0       0       0       
      +0       0
  4131 ;;      Locals:         0       0       0       0       0       0       0       0       0       0       0       0       
      +0       0
  4132 ;;      Temps:          0       0       0       0       0       0       0       0       0       0       0       0       
      +0       0
  4133 ;;      Totals:         0       0       0       0       0       0       0       0       0       0       0       0       
      +0       0
  4134 ;;Total ram usage:        0 bytes
  4135 ;; Hardware stack levels used:    1
  4136 ;; Hardware stack levels required when called:    3
  4137 ;; This function calls:
  4138 ;;		_ADC_Config
  4139 ;;		_CCP_Config
  4140 ;;		_DAC_Config
  4141 ;;		_PWM_Config
  4142 ;;		_UART_Config
  4143 ;; This function is called by:
  4144 ;;		_main
  4145 ;; This function uses a non-reentrant model
  4146 ;;
  4147                           
  4148                           
  4149                           ;psect for function _InitApp
  4150  01A4                     _InitApp:	
  4151  01A4                     l1196:	
  4152                           ;incstack = 0
  4153                           ; Regs used in _InitApp: [wreg+status,2+status,0+pclath+cstack]
  4154                           
  4155                           
  4156                           ;user.c: 26: LATA = 0x00;
  4157  01A4  0022               	movlb	2	; select bank2
  4158  01A5  018C               	clrf	12	;volatile
  4159                           
  4160                           ;user.c: 27: LATB = 0x00;
  4161  01A6  018D               	clrf	13	;volatile
  4162                           
  4163                           ;user.c: 28: LATC = 0x00;
  4164  01A7  018E               	clrf	14	;volatile
  4165  01A8                     l1198:	
  4166                           
  4167                           ;user.c: 32: TRISA = 0x7B;
  4168  01A8  307B               	movlw	123
  4169  01A9  0021               	movlb	1	; select bank1
  4170  01AA  008C               	movwf	12	;volatile
  4171  01AB                     l1200:	
  4172                           
  4173                           ;user.c: 33: TRISB = 0xD7;
  4174  01AB  30D7               	movlw	215
  4175  01AC  008D               	movwf	13	;volatile
  4176  01AD                     l1202:	
  4177                           
  4178                           ;user.c: 34: TRISC = 0b10000000;
  4179  01AD  3080               	movlw	128
  4180  01AE  008E               	movwf	14	;volatile
  4181  01AF                     l1204:	
  4182                           
  4183                           ;user.c: 38: ANSELC = 0x0C;
  4184  01AF  300C               	movlw	12
  4185  01B0  0023               	movlb	3	; select bank3
  4186  01B1  008E               	movwf	14	;volatile
  4187                           
  4188                           ;user.c: 39: ANSELB = 0x00;
  4189  01B2  018D               	clrf	13	;volatile
  4190  01B3                     l1206:	
  4191                           
  4192                           ;user.c: 40: ANSELA = 0x0F;
  4193  01B3  300F               	movlw	15
  4194  01B4  008C               	movwf	12	;volatile
  4195  01B5                     l1208:	
  4196                           
  4197                           ;user.c: 42: RA7PPS = 0x1D;
  4198  01B5  301D               	movlw	29
  4199  01B6  003D               	movlb	29	; select bank29
  4200  01B7  0097               	movwf	23	;volatile
  4201  01B8                     l1210:	
  4202                           
  4203                           ;user.c: 43: RB5PPS = 0x15;
  4204  01B8  3015               	movlw	21
  4205  01B9  009D               	movwf	29	;volatile
  4206  01BA                     l1212:	
  4207                           
  4208                           ;user.c: 44: RC1PPS = 0x17;
  4209  01BA  3017               	movlw	23
  4210  01BB  00A1               	movwf	33	;volatile
  4211  01BC                     l1214:	
  4212                           
  4213                           ;user.c: 45: RB3PPS = 0x16;
  4214  01BC  3016               	movlw	22
  4215  01BD  009B               	movwf	27	;volatile
  4216  01BE                     l1216:	
  4217                           
  4218                           ;user.c: 46: RC6PPS = 0x24;
  4219  01BE  3024               	movlw	36
  4220  01BF  00A6               	movwf	38	;volatile
  4221  01C0                     l1218:	
  4222                           
  4223                           ;user.c: 47: RXPPS = 0b00010111;
  4224  01C0  3017               	movlw	23
  4225  01C1  003C               	movlb	28	; select bank28
  4226  01C2  00BD               	movwf	61	;volatile
  4227  01C3                     l1220:	
  4228                           
  4229                           ;user.c: 50: INTCONbits.GIE=1;
  4230  01C3  178B               	bsf	11,7	;volatile
  4231  01C4                     l1222:	
  4232                           
  4233                           ;user.c: 51: INTCONbits.PEIE=1;
  4234  01C4  170B               	bsf	11,6	;volatile
  4235  01C5                     l1224:	
  4236                           
  4237                           ;user.c: 53: CCP_Config();
  4238  01C5  3181  21D5  3181   	fcall	_CCP_Config
  4239  01C8                     l1226:	
  4240                           
  4241                           ;user.c: 54: PWM_Config();
  4242  01C8  3182  22B6  3181   	fcall	_PWM_Config
  4243  01CB                     l1228:	
  4244                           
  4245                           ;user.c: 55: UART_Config();
  4246  01CB  3182  225F  3181   	fcall	_UART_Config
  4247  01CE                     l1230:	
  4248                           
  4249                           ;user.c: 56: DAC_Config();
  4250  01CE  3182  228C  3181   	fcall	_DAC_Config
  4251  01D1                     l1232:	
  4252                           
  4253                           ;user.c: 57: ADC_Config();
  4254  01D1  3182  2299  3181   	fcall	_ADC_Config
  4255  01D4                     l199:	
  4256  01D4  0008               	return
  4257  01D5                     __end_of_InitApp:	
  4258                           
  4259                           	psect	text8
  4260  025F                     __ptext8:	
  4261 ;; *************** function _UART_Config *****************
  4262 ;; Defined at:
  4263 ;;		line 149 in file "user.c"
  4264 ;; Parameters:    Size  Location     Type
  4265 ;;		None
  4266 ;; Auto vars:     Size  Location     Type
  4267 ;;		None
  4268 ;; Return value:  Size  Location     Type
  4269 ;;                  1    wreg      void 
  4270 ;; Registers used:
  4271 ;;		wreg, status,2
  4272 ;; Tracked objects:
  4273 ;;		On entry : 0/0
  4274 ;;		On exit  : 0/0
  4275 ;;		Unchanged: 0/0
  4276 ;; Data sizes:     COMMON   BANK0   BANK1   BANK2   BANK3   BANK4   BANK5   BANK6   BANK7   BANK8   BANK9  BANK10  BANK1
      +1  BANK12
  4277 ;;      Params:         0       0       0       0       0       0       0       0       0       0       0       0       
      +0       0
  4278 ;;      Locals:         0       0       0       0       0       0       0       0       0       0       0       0       
      +0       0
  4279 ;;      Temps:          0       0       0       0       0       0       0       0       0       0       0       0       
      +0       0
  4280 ;;      Totals:         0       0       0       0       0       0       0       0       0       0       0       0       
      +0       0
  4281 ;;Total ram usage:        0 bytes
  4282 ;; Hardware stack levels used:    1
  4283 ;; Hardware stack levels required when called:    1
  4284 ;; This function calls:
  4285 ;;		Nothing
  4286 ;; This function is called by:
  4287 ;;		_InitApp
  4288 ;; This function uses a non-reentrant model
  4289 ;;
  4290                           
  4291                           
  4292                           ;psect for function _UART_Config
  4293  025F                     _UART_Config:	
  4294  025F                     l1132:	
  4295                           ;incstack = 0
  4296                           ; Regs used in _UART_Config: [wreg+status,2]
  4297                           
  4298                           
  4299                           ;user.c: 151: TX1STAbits.TXEN = 1;
  4300  025F  0023               	movlb	3	; select bank3
  4301  0260  169E               	bsf	30,5	;volatile
  4302                           
  4303                           ;user.c: 152: RC1STAbits.SPEN = 1;
  4304  0261  179D               	bsf	29,7	;volatile
  4305                           
  4306                           ;user.c: 153: TX1STAbits.SYNC = 0;
  4307  0262  121E               	bcf	30,4	;volatile
  4308                           
  4309                           ;user.c: 155: RC1STAbits.CREN = 1;
  4310  0263  161D               	bsf	29,4	;volatile
  4311  0264                     l1134:	
  4312                           
  4313                           ;user.c: 159: BAUD1CON = 0x00;
  4314  0264  019F               	clrf	31	;volatile
  4315  0265                     l1136:	
  4316                           
  4317                           ;user.c: 162: RC1STA = 0x90;
  4318  0265  3090               	movlw	144
  4319  0266  009D               	movwf	29	;volatile
  4320  0267                     l1138:	
  4321                           
  4322                           ;user.c: 165: TX1STA = 0x20;
  4323  0267  3020               	movlw	32
  4324  0268  009E               	movwf	30	;volatile
  4325  0269                     l1140:	
  4326                           
  4327                           ;user.c: 168: SP1BRG=51;
  4328  0269  3000               	movlw	0
  4329  026A  009C               	movwf	28	;volatile
  4330  026B  3033               	movlw	51
  4331  026C  009B               	movwf	27	;volatile
  4332  026D                     l1142:	
  4333                           
  4334                           ;user.c: 172: PIE1bits.RCIE = 1;
  4335  026D  0021               	movlb	1	; select bank1
  4336  026E  1691               	bsf	17,5	;volatile
  4337  026F                     l1144:	
  4338                           
  4339                           ;user.c: 175: TRISCbits.TRISC6=0;
  4340  026F  130E               	bcf	14,6	;volatile
  4341  0270                     l1146:	
  4342                           
  4343                           ;user.c: 176: TRISCbits.TRISC7=1;
  4344  0270  178E               	bsf	14,7	;volatile
  4345  0271                     l1148:	
  4346                           
  4347                           ;user.c: 179: TX1REG = 50;
  4348  0271  3032               	movlw	50
  4349  0272  0023               	movlb	3	; select bank3
  4350  0273  009A               	movwf	26	;volatile
  4351  0274                     l219:	
  4352                           ;user.c: 180: while (PIR1bits.TXIF == 0);
  4353                           
  4354  0274  0020               	movlb	0	; select bank0
  4355  0275  1E11               	btfss	17,4	;volatile
  4356  0276  2A78               	goto	u331
  4357  0277  2A79               	goto	u330
  4358  0278                     u331:	
  4359  0278  2A74               	goto	l219
  4360  0279                     u330:	
  4361  0279                     l222:	
  4362  0279  0008               	return
  4363  027A                     __end_of_UART_Config:	
  4364                           
  4365                           	psect	text9
  4366  02B6                     __ptext9:	
  4367 ;; *************** function _PWM_Config *****************
  4368 ;; Defined at:
  4369 ;;		line 118 in file "user.c"
  4370 ;; Parameters:    Size  Location     Type
  4371 ;;		None
  4372 ;; Auto vars:     Size  Location     Type
  4373 ;;		None
  4374 ;; Return value:  Size  Location     Type
  4375 ;;                  1    wreg      void 
  4376 ;; Registers used:
  4377 ;;		None
  4378 ;; Tracked objects:
  4379 ;;		On entry : 0/0
  4380 ;;		On exit  : 0/0
  4381 ;;		Unchanged: 0/0
  4382 ;; Data sizes:     COMMON   BANK0   BANK1   BANK2   BANK3   BANK4   BANK5   BANK6   BANK7   BANK8   BANK9  BANK10  BANK1
      +1  BANK12
  4383 ;;      Params:         0       0       0       0       0       0       0       0       0       0       0       0       
      +0       0
  4384 ;;      Locals:         0       0       0       0       0       0       0       0       0       0       0       0       
      +0       0
  4385 ;;      Temps:          0       0       0       0       0       0       0       0       0       0       0       0       
      +0       0
  4386 ;;      Totals:         0       0       0       0       0       0       0       0       0       0       0       0       
      +0       0
  4387 ;;Total ram usage:        0 bytes
  4388 ;; Hardware stack levels used:    1
  4389 ;; Hardware stack levels required when called:    1
  4390 ;; This function calls:
  4391 ;;		Nothing
  4392 ;; This function is called by:
  4393 ;;		_InitApp
  4394 ;; This function uses a non-reentrant model
  4395 ;;
  4396                           
  4397                           
  4398                           ;psect for function _PWM_Config
  4399  02B6                     _PWM_Config:	
  4400  02B6                     l205:	
  4401                           ;incstack = 0
  4402                           ; Regs used in _PWM_Config: []
  4403                           
  4404  02B6  0008               	return
  4405  02B7                     __end_of_PWM_Config:	
  4406                           
  4407                           	psect	text10
  4408  028C                     __ptext10:	
  4409 ;; *************** function _DAC_Config *****************
  4410 ;; Defined at:
  4411 ;;		line 140 in file "user.c"
  4412 ;; Parameters:    Size  Location     Type
  4413 ;;		None
  4414 ;; Auto vars:     Size  Location     Type
  4415 ;;		None
  4416 ;; Return value:  Size  Location     Type
  4417 ;;                  1    wreg      void 
  4418 ;; Registers used:
  4419 ;;		wreg, status,2, status,0, pclath, cstack
  4420 ;; Tracked objects:
  4421 ;;		On entry : 0/0
  4422 ;;		On exit  : 0/0
  4423 ;;		Unchanged: 0/0
  4424 ;; Data sizes:     COMMON   BANK0   BANK1   BANK2   BANK3   BANK4   BANK5   BANK6   BANK7   BANK8   BANK9  BANK10  BANK1
      +1  BANK12
  4425 ;;      Params:         0       0       0       0       0       0       0       0       0       0       0       0       
      +0       0
  4426 ;;      Locals:         0       0       0       0       0       0       0       0       0       0       0       0       
      +0       0
  4427 ;;      Temps:          0       0       0       0       0       0       0       0       0       0       0       0       
      +0       0
  4428 ;;      Totals:         0       0       0       0       0       0       0       0       0       0       0       0       
      +0       0
  4429 ;;Total ram usage:        0 bytes
  4430 ;; Hardware stack levels used:    1
  4431 ;; Hardware stack levels required when called:    2
  4432 ;; This function calls:
  4433 ;;		_DAC_Set
  4434 ;; This function is called by:
  4435 ;;		_InitApp
  4436 ;; This function uses a non-reentrant model
  4437 ;;
  4438                           
  4439                           
  4440                           ;psect for function _DAC_Config
  4441  028C                     _DAC_Config:	
  4442  028C                     l1150:	
  4443                           ;incstack = 0
  4444                           ; Regs used in _DAC_Config: [wreg+status,2+status,0+pclath+cstack]
  4445                           
  4446                           
  4447                           ;user.c: 141: TRISAbits.TRISA2=0;
  4448  028C  0021               	movlb	1	; select bank1
  4449  028D  110C               	bcf	12,2	;volatile
  4450  028E                     l1152:	
  4451                           
  4452                           ;user.c: 142: DAC1CON0=0b10100000;
  4453  028E  30A0               	movlw	160
  4454  028F  002B               	movlb	11	; select bank11
  4455  0290  008E               	movwf	14	;volatile
  4456  0291                     l1154:	
  4457                           
  4458                           ;user.c: 144: DAC_Set(250);
  4459  0291  30FA               	movlw	250
  4460  0292  00F1               	movwf	DAC_Set@DACvalue
  4461  0293  3000               	movlw	0
  4462  0294  00F2               	movwf	DAC_Set@DACvalue+1
  4463  0295  3182  22AD  3182   	fcall	_DAC_Set
  4464  0298                     l216:	
  4465  0298  0008               	return
  4466  0299                     __end_of_DAC_Config:	
  4467                           
  4468                           	psect	text11
  4469  02AD                     __ptext11:	
  4470 ;; *************** function _DAC_Set *****************
  4471 ;; Defined at:
  4472 ;;		line 192 in file "user.c"
  4473 ;; Parameters:    Size  Location     Type
  4474 ;;  DACvalue        2    1[COMMON] int 
  4475 ;; Auto vars:     Size  Location     Type
  4476 ;;		None
  4477 ;; Return value:  Size  Location     Type
  4478 ;;                  1    wreg      void 
  4479 ;; Registers used:
  4480 ;;		wreg
  4481 ;; Tracked objects:
  4482 ;;		On entry : 0/0
  4483 ;;		On exit  : 0/0
  4484 ;;		Unchanged: 0/0
  4485 ;; Data sizes:     COMMON   BANK0   BANK1   BANK2   BANK3   BANK4   BANK5   BANK6   BANK7   BANK8   BANK9  BANK10  BANK1
      +1  BANK12
  4486 ;;      Params:         2       0       0       0       0       0       0       0       0       0       0       0       
      +0       0
  4487 ;;      Locals:         0       0       0       0       0       0       0       0       0       0       0       0       
      +0       0
  4488 ;;      Temps:          0       0       0       0       0       0       0       0       0       0       0       0       
      +0       0
  4489 ;;      Totals:         2       0       0       0       0       0       0       0       0       0       0       0       
      +0       0
  4490 ;;Total ram usage:        2 bytes
  4491 ;; Hardware stack levels used:    1
  4492 ;; Hardware stack levels required when called:    1
  4493 ;; This function calls:
  4494 ;;		Nothing
  4495 ;; This function is called by:
  4496 ;;		_main
  4497 ;;		_DAC_Config
  4498 ;; This function uses a non-reentrant model
  4499 ;;
  4500                           
  4501                           
  4502                           ;psect for function _DAC_Set
  4503  02AD                     _DAC_Set:	
  4504  02AD                     l1086:	
  4505                           ;incstack = 0
  4506                           ; Regs used in _DAC_Set: [wreg]
  4507                           
  4508                           
  4509                           ;user.c: 193: DAC1REF=DACvalue;
  4510  02AD  0872               	movf	DAC_Set@DACvalue+1,w
  4511  02AE  002B               	movlb	11	; select bank11
  4512  02AF  0090               	movwf	16	;volatile
  4513  02B0  0871               	movf	DAC_Set@DACvalue,w
  4514  02B1  008F               	movwf	15	;volatile
  4515  02B2                     l1088:	
  4516                           
  4517                           ;user.c: 194: DACLDbits.DAC1LD = 1;
  4518  02B2  140D               	bsf	13,0	;volatile
  4519  02B3                     l225:	
  4520  02B3  0008               	return
  4521  02B4                     __end_of_DAC_Set:	
  4522                           
  4523                           	psect	text12
  4524  01D5                     __ptext12:	
  4525 ;; *************** function _CCP_Config *****************
  4526 ;; Defined at:
  4527 ;;		line 67 in file "user.c"
  4528 ;; Parameters:    Size  Location     Type
  4529 ;;		None
  4530 ;; Auto vars:     Size  Location     Type
  4531 ;;		None
  4532 ;; Return value:  Size  Location     Type
  4533 ;;                  1    wreg      void 
  4534 ;; Registers used:
  4535 ;;		wreg, status,2, status,0
  4536 ;; Tracked objects:
  4537 ;;		On entry : 0/0
  4538 ;;		On exit  : 0/0
  4539 ;;		Unchanged: 0/0
  4540 ;; Data sizes:     COMMON   BANK0   BANK1   BANK2   BANK3   BANK4   BANK5   BANK6   BANK7   BANK8   BANK9  BANK10  BANK1
      +1  BANK12
  4541 ;;      Params:         0       0       0       0       0       0       0       0       0       0       0       0       
      +0       0
  4542 ;;      Locals:         0       0       0       0       0       0       0       0       0       0       0       0       
      +0       0
  4543 ;;      Temps:          0       0       0       0       0       0       0       0       0       0       0       0       
      +0       0
  4544 ;;      Totals:         0       0       0       0       0       0       0       0       0       0       0       0       
      +0       0
  4545 ;;Total ram usage:        0 bytes
  4546 ;; Hardware stack levels used:    1
  4547 ;; Hardware stack levels required when called:    1
  4548 ;; This function calls:
  4549 ;;		Nothing
  4550 ;; This function is called by:
  4551 ;;		_InitApp
  4552 ;; This function uses a non-reentrant model
  4553 ;;
  4554                           
  4555                           
  4556                           ;psect for function _CCP_Config
  4557  01D5                     _CCP_Config:	
  4558  01D5                     l1102:	
  4559                           ;incstack = 0
  4560                           ; Regs used in _CCP_Config: [wreg+status,2+status,0]
  4561                           
  4562                           
  4563                           ;user.c: 71: CCPTMRS1bits.C1TSEL = 0x0;
  4564  01D5  30FC               	movlw	-4
  4565  01D6  0025               	movlb	5	; select bank5
  4566  01D7  059E               	andwf	30,f	;volatile
  4567                           
  4568                           ;user.c: 72: CCPTMRS1bits.C2TSEL = 0x0;
  4569  01D8  30F3               	movlw	-13
  4570  01D9  059E               	andwf	30,f	;volatile
  4571                           
  4572                           ;user.c: 73: CCPTMRS1bits.C7TSEL = 0x0;
  4573  01DA  30CF               	movlw	-49
  4574  01DB  059E               	andwf	30,f	;volatile
  4575  01DC                     l1104:	
  4576                           
  4577                           ;user.c: 76: T2PR=255;
  4578  01DC  30FF               	movlw	255
  4579  01DD  0029               	movlb	9	; select bank9
  4580  01DE  0094               	movwf	20	;volatile
  4581  01DF                     l1106:	
  4582                           
  4583                           ;user.c: 79: CCP1CON = 0x8F;
  4584  01DF  308F               	movlw	143
  4585  01E0  0025               	movlb	5	; select bank5
  4586  01E1  0093               	movwf	19	;volatile
  4587  01E2                     l1108:	
  4588                           
  4589                           ;user.c: 80: CCPR1=250;
  4590  01E2  3000               	movlw	0
  4591  01E3  0092               	movwf	18	;volatile
  4592  01E4  30FA               	movlw	250
  4593  01E5  0091               	movwf	17	;volatile
  4594  01E6                     l1110:	
  4595                           
  4596                           ;user.c: 83: CCP2CON = 0x8F;
  4597  01E6  308F               	movlw	143
  4598  01E7  0097               	movwf	23	;volatile
  4599  01E8                     l1112:	
  4600                           
  4601                           ;user.c: 84: CCPR2=210;
  4602  01E8  3000               	movlw	0
  4603  01E9  0096               	movwf	22	;volatile
  4604  01EA  30D2               	movlw	210
  4605  01EB  0095               	movwf	21	;volatile
  4606  01EC                     l1114:	
  4607                           
  4608                           ;user.c: 87: CCP7CON = 0x8F;
  4609  01EC  308F               	movlw	143
  4610  01ED  009B               	movwf	27	;volatile
  4611  01EE                     l1116:	
  4612                           
  4613                           ;user.c: 88: CCPR7=510;
  4614  01EE  3001               	movlw	1
  4615  01EF  009A               	movwf	26	;volatile
  4616  01F0  30FE               	movlw	254
  4617  01F1  0099               	movwf	25	;volatile
  4618  01F2                     l1118:	
  4619                           
  4620                           ;user.c: 95: T2CLKCON = 0x01;
  4621  01F2  3001               	movlw	1
  4622  01F3  0029               	movlb	9	; select bank9
  4623  01F4  0097               	movwf	23	;volatile
  4624  01F5                     l1120:	
  4625                           
  4626                           ;user.c: 98: T2HLT = 0x00;
  4627  01F5  0196               	clrf	22	;volatile
  4628  01F6                     l1122:	
  4629                           
  4630                           ;user.c: 101: T2RST = 0x00;
  4631  01F6  0198               	clrf	24	;volatile
  4632  01F7                     l1124:	
  4633                           
  4634                           ;user.c: 104: T2PR = 0xFF;
  4635  01F7  30FF               	movlw	255
  4636  01F8  0094               	movwf	20	;volatile
  4637  01F9                     l1126:	
  4638                           
  4639                           ;user.c: 107: T2TMR = 0x00;
  4640  01F9  0193               	clrf	19	;volatile
  4641  01FA                     l1128:	
  4642                           
  4643                           ;user.c: 110: PIR1bits.TMR2IF = 0;
  4644  01FA  0020               	movlb	0	; select bank0
  4645  01FB  1091               	bcf	17,1	;volatile
  4646  01FC                     l1130:	
  4647                           
  4648                           ;user.c: 113: T2CON = 0x80;
  4649  01FC  3080               	movlw	128
  4650  01FD  0029               	movlb	9	; select bank9
  4651  01FE  0095               	movwf	21	;volatile
  4652  01FF                     l202:	
  4653  01FF  0008               	return
  4654  0200                     __end_of_CCP_Config:	
  4655                           
  4656                           	psect	text13
  4657  0299                     __ptext13:	
  4658 ;; *************** function _ADC_Config *****************
  4659 ;; Defined at:
  4660 ;;		line 197 in file "user.c"
  4661 ;; Parameters:    Size  Location     Type
  4662 ;;		None
  4663 ;; Auto vars:     Size  Location     Type
  4664 ;;		None
  4665 ;; Return value:  Size  Location     Type
  4666 ;;                  1    wreg      void 
  4667 ;; Registers used:
  4668 ;;		wreg, status,2
  4669 ;; Tracked objects:
  4670 ;;		On entry : 0/0
  4671 ;;		On exit  : 0/0
  4672 ;;		Unchanged: 0/0
  4673 ;; Data sizes:     COMMON   BANK0   BANK1   BANK2   BANK3   BANK4   BANK5   BANK6   BANK7   BANK8   BANK9  BANK10  BANK1
      +1  BANK12
  4674 ;;      Params:         0       0       0       0       0       0       0       0       0       0       0       0       
      +0       0
  4675 ;;      Locals:         0       0       0       0       0       0       0       0       0       0       0       0       
      +0       0
  4676 ;;      Temps:          0       0       0       0       0       0       0       0       0       0       0       0       
      +0       0
  4677 ;;      Totals:         0       0       0       0       0       0       0       0       0       0       0       0       
      +0       0
  4678 ;;Total ram usage:        0 bytes
  4679 ;; Hardware stack levels used:    1
  4680 ;; Hardware stack levels required when called:    1
  4681 ;; This function calls:
  4682 ;;		Nothing
  4683 ;; This function is called by:
  4684 ;;		_InitApp
  4685 ;; This function uses a non-reentrant model
  4686 ;;
  4687                           
  4688                           
  4689                           ;psect for function _ADC_Config
  4690  0299                     _ADC_Config:	
  4691  0299                     l1156:	
  4692                           ;incstack = 0
  4693                           ; Regs used in _ADC_Config: [wreg+status,2]
  4694                           
  4695                           
  4696                           ;user.c: 198: TRISAbits.TRISA0=1;
  4697  0299  0021               	movlb	1	; select bank1
  4698  029A  140C               	bsf	12,0	;volatile
  4699  029B                     l1158:	
  4700                           
  4701                           ;user.c: 199: ADCON1=0b11100000;
  4702  029B  30E0               	movlw	224
  4703  029C  0029               	movlb	9	; select bank9
  4704  029D  0091               	movwf	17	;volatile
  4705  029E                     l1160:	
  4706                           
  4707                           ;user.c: 200: ADCON0=0x00;
  4708  029E  0190               	clrf	16	;volatile
  4709  029F                     l1162:	
  4710                           
  4711                           ;user.c: 201: WPUA=0x00;
  4712  029F  0024               	movlb	4	; select bank4
  4713  02A0  018C               	clrf	12	;volatile
  4714  02A1                     l1164:	
  4715                           
  4716                           ;user.c: 202: ADCON0bits.ADON=1;
  4717  02A1  0029               	movlb	9	; select bank9
  4718  02A2  1410               	bsf	16,0	;volatile
  4719  02A3                     l228:	
  4720  02A3  0008               	return
  4721  02A4                     __end_of_ADC_Config:	
  4722                           
  4723                           	psect	text14
  4724  02A4                     __ptext14:	
  4725 ;; *************** function _ConfigureOscillator *****************
  4726 ;; Defined at:
  4727 ;;		line 18 in file "system.c"
  4728 ;; Parameters:    Size  Location     Type
  4729 ;;		None
  4730 ;; Auto vars:     Size  Location     Type
  4731 ;;		None
  4732 ;; Return value:  Size  Location     Type
  4733 ;;                  1    wreg      void 
  4734 ;; Registers used:
  4735 ;;		wreg, status,2, status,0
  4736 ;; Tracked objects:
  4737 ;;		On entry : 0/0
  4738 ;;		On exit  : 0/0
  4739 ;;		Unchanged: 0/0
  4740 ;; Data sizes:     COMMON   BANK0   BANK1   BANK2   BANK3   BANK4   BANK5   BANK6   BANK7   BANK8   BANK9  BANK10  BANK1
      +1  BANK12
  4741 ;;      Params:         0       0       0       0       0       0       0       0       0       0       0       0       
      +0       0
  4742 ;;      Locals:         0       0       0       0       0       0       0       0       0       0       0       0       
      +0       0
  4743 ;;      Temps:          0       0       0       0       0       0       0       0       0       0       0       0       
      +0       0
  4744 ;;      Totals:         0       0       0       0       0       0       0       0       0       0       0       0       
      +0       0
  4745 ;;Total ram usage:        0 bytes
  4746 ;; Hardware stack levels used:    1
  4747 ;; Hardware stack levels required when called:    1
  4748 ;; This function calls:
  4749 ;;		Nothing
  4750 ;; This function is called by:
  4751 ;;		_main
  4752 ;; This function uses a non-reentrant model
  4753 ;;
  4754                           
  4755                           
  4756                           ;psect for function _ConfigureOscillator
  4757  02A4                     _ConfigureOscillator:	
  4758  02A4                     l1192:	
  4759                           ;incstack = 0
  4760                           ; Regs used in _ConfigureOscillator: [wreg+status,2+status,0]
  4761                           
  4762                           
  4763                           ;system.c: 24: OSCCONbits.IRCF=0b1110;
  4764  02A4  0021               	movlb	1	; select bank1
  4765  02A5  081B               	movf	27,w	;volatile
  4766  02A6  3987               	andlw	-121
  4767  02A7  3870               	iorlw	112
  4768  02A8  009B               	movwf	27	;volatile
  4769  02A9                     l1194:	
  4770                           
  4771                           ;system.c: 25: OSCCONbits.SPLLEN=1;
  4772  02A9  179B               	bsf	27,7	;volatile
  4773                           
  4774                           ;system.c: 26: OSCCONbits.SCS=0b00;
  4775  02AA  30FC               	movlw	-4
  4776  02AB  059B               	andwf	27,f	;volatile
  4777  02AC                     l90:	
  4778  02AC  0008               	return
  4779  02AD                     __end_of_ConfigureOscillator:	
  4780                           
  4781                           	psect	intentry
  4782  0004                     __pintentry:	
  4783 ;; *************** function _isr *****************
  4784 ;; Defined at:
  4785 ;;		line 27 in file "interrupts.c"
  4786 ;; Parameters:    Size  Location     Type
  4787 ;;		None
  4788 ;; Auto vars:     Size  Location     Type
  4789 ;;		None
  4790 ;; Return value:  Size  Location     Type
  4791 ;;                  1    wreg      void 
  4792 ;; Registers used:
  4793 ;;		wreg, fsr1l, fsr1h, status,2, status,0
  4794 ;; Tracked objects:
  4795 ;;		On entry : 0/0
  4796 ;;		On exit  : 0/0
  4797 ;;		Unchanged: 0/0
  4798 ;; Data sizes:     COMMON   BANK0   BANK1   BANK2   BANK3   BANK4   BANK5   BANK6   BANK7   BANK8   BANK9  BANK10  BANK1
      +1  BANK12
  4799 ;;      Params:         0       0       0       0       0       0       0       0       0       0       0       0       
      +0       0
  4800 ;;      Locals:         0       0       0       0       0       0       0       0       0       0       0       0       
      +0       0
  4801 ;;      Temps:          1       0       0       0       0       0       0       0       0       0       0       0       
      +0       0
  4802 ;;      Totals:         1       0       0       0       0       0       0       0       0       0       0       0       
      +0       0
  4803 ;;Total ram usage:        1 bytes
  4804 ;; Hardware stack levels used:    1
  4805 ;; This function calls:
  4806 ;;		Nothing
  4807 ;; This function is called by:
  4808 ;;		Interrupt level 1
  4809 ;; This function uses a non-reentrant model
  4810 ;;
  4811                           
  4812  0004                     _isr:	
  4813                           
  4814                           ;incstack = 0
  4815  0004  147E               	bsf	int$flags,0	;set compiler interrupt flag (level 1)
  4816                           
  4817                           ; Regs used in _isr: [wreg+fsr1l+fsr1h+status,2+status,0]
  4818  0005  3180               	pagesel	$
  4819  0006                     i1l1290:	
  4820                           
  4821                           ;interrupts.c: 34: if (PIR1bits.RCIF) {
  4822  0006  0020               	movlb	0	; select bank0
  4823  0007  1E91               	btfss	17,5	;volatile
  4824  0008  280A               	goto	u50_21
  4825  0009  280B               	goto	u50_20
  4826  000A                     u50_21:	
  4827  000A  2828               	goto	i1l17
  4828  000B                     u50_20:	
  4829  000B                     i1l1292:	
  4830                           
  4831                           ;interrupts.c: 35: palabra[n] = RC1REG;
  4832  000B  0023               	movlb	3	; select bank3
  4833  000C  0819               	movf	25,w	;volatile
  4834  000D  00F0               	movwf	??_isr
  4835  000E  087C               	movf	_n,w
  4836  000F  3E23               	addlw	(low (_palabra| 0))& (0+255)
  4837  0010  0086               	movwf	6
  4838  0011  0187               	clrf	7
  4839  0012  0870               	movf	??_isr,w
  4840  0013  0081               	movwf	1
  4841                           
  4842                           ;interrupts.c: 36: if (palabra[n] == '\r') {
  4843  0014  087C               	movf	_n,w
  4844  0015  3E23               	addlw	(low (_palabra| 0))& (0+255)
  4845  0016  0086               	movwf	6
  4846  0017  0187               	clrf	7
  4847  0018  300D               	movlw	13
  4848  0019  0601               	xorwf	1,w
  4849  001A  1D03               	btfss	3,2
  4850  001B  281D               	goto	u51_21
  4851  001C  281E               	goto	u51_20
  4852  001D                     u51_21:	
  4853  001D  2821               	goto	i1l1296
  4854  001E                     u51_20:	
  4855  001E                     i1l1294:	
  4856                           
  4857                           ;interrupts.c: 37: enter = 1;
  4858  001E  0020               	movlb	0	; select bank0
  4859  001F  01A2               	clrf	_enter
  4860  0020  0AA2               	incf	_enter,f
  4861  0021                     i1l1296:	
  4862                           
  4863                           ;interrupts.c: 38: };interrupts.c: 39: n++;
  4864  0021  3001               	movlw	1
  4865  0022  00F0               	movwf	??_isr
  4866  0023  0870               	movf	??_isr,w
  4867  0024  07FC               	addwf	_n,f
  4868  0025                     i1l1298:	
  4869                           
  4870                           ;interrupts.c: 40: PIR1bits.RCIF=0;
  4871  0025  0020               	movlb	0	; select bank0
  4872  0026  1291               	bcf	17,5	;volatile
  4873                           
  4874                           ;interrupts.c: 41: }else if(INTCONbits.T0IF){
  4875  0027  282D               	goto	i1l21
  4876  0028                     i1l17:	
  4877  0028  1D0B               	btfss	11,2	;volatile
  4878  0029  282B               	goto	u52_21
  4879  002A  282C               	goto	u52_20
  4880  002B                     u52_21:	
  4881  002B  282D               	goto	i1l21
  4882  002C                     u52_20:	
  4883  002C                     i1l1300:	
  4884                           
  4885                           ;interrupts.c: 42: INTCONbits.T0IF=0;
  4886  002C  110B               	bcf	11,2	;volatile
  4887  002D                     i1l21:	
  4888  002D  107E               	bcf	int$flags,0	;clear compiler interrupt flag (level 1)
  4889  002E  0009               	retfie
  4890  002F                     __end_of_isr:	
  4891  007E                     btemp	set	126	;btemp
  4892  007E                     int$flags	set	126
  4893  007E                     wtemp0	set	126


Data Sizes:
    Strings     1
    Constant    0
    Data        1
    BSS         12
    Persistent  32
    Stack       0

Auto Spaces:
    Space          Size  Autos    Used
    COMMON           14     12      13
    BANK0            80     10      22
    BANK1            80      0       0
    BANK2            80      0       0
    BANK3            80      0       0
    BANK4            80      0       0
    BANK5            80      0       0
    BANK6            80      0       0
    BANK7            80      0       0
    BANK8            80      0       0
    BANK9            80      0       0
    BANK10           80      0       0
    BANK11           80      0       0
    BANK12           48      0       0

Pointer List with Targets:

    strcpy@from	PTR const unsigned char  size(2) Largest target is 1
		 -> STR_1(CODE[1]), 

    strcpy@to	PTR unsigned char  size(1) Largest target is 8
		 -> palabra(BANK0[8]), 

    strcpy@cp	PTR unsigned char  size(1) Largest target is 8
		 -> palabra(BANK0[8]), 

    atoi@s	PTR const unsigned char  size(1) Largest target is 8
		 -> palabra(BANK0[8]), 

    sp__strcpy	PTR unsigned char  size(1) Largest target is 8
		 -> palabra(BANK0[8]), 


Critical Paths under _main in COMMON

    _main->_autofocus
    _autofocus->_duty_PWM
    _atoi->___wmul
    _DAC_Config->_DAC_Set

Critical Paths under _isr in COMMON

    None.

Critical Paths under _main in BANK0

    _main->_atoi

Critical Paths under _isr in BANK0

    None.

Critical Paths under _main in BANK1

    None.

Critical Paths under _isr in BANK1

    None.

Critical Paths under _main in BANK2

    None.

Critical Paths under _isr in BANK2

    None.

Critical Paths under _main in BANK3

    None.

Critical Paths under _isr in BANK3

    None.

Critical Paths under _main in BANK4

    None.

Critical Paths under _isr in BANK4

    None.

Critical Paths under _main in BANK5

    None.

Critical Paths under _isr in BANK5

    None.

Critical Paths under _main in BANK6

    None.

Critical Paths under _isr in BANK6

    None.

Critical Paths under _main in BANK7

    None.

Critical Paths under _isr in BANK7

    None.

Critical Paths under _main in BANK8

    None.

Critical Paths under _isr in BANK8

    None.

Critical Paths under _main in BANK9

    None.

Critical Paths under _isr in BANK9

    None.

Critical Paths under _main in BANK10

    None.

Critical Paths under _isr in BANK10

    None.

Critical Paths under _main in BANK11

    None.

Critical Paths under _isr in BANK11

    None.

Critical Paths under _main in BANK12

    None.

Critical Paths under _isr in BANK12

    None.

Call Graph Tables:

 ---------------------------------------------------------------------------------
 (Depth) Function   	        Calls       Base Space   Used Autos Params    Refs
 ---------------------------------------------------------------------------------
 (0) _main                                                 2     2      0    2832
                                              8 BANK0      2     2      0
                _ConfigureOscillator
                            _DAC_Set
                            _InitApp
                               _atoi
                          _autofocus
                           _duty_PWM
                             _strcpy
 ---------------------------------------------------------------------------------
 (1) _strcpy                                               5     3      2     184
                                              1 COMMON     5     3      2
 ---------------------------------------------------------------------------------
 (1) _autofocus                                            8     8      0     878
                                              4 COMMON     8     8      0
                           _duty_PWM
 ---------------------------------------------------------------------------------
 (1) _duty_PWM                                             3     0      3     740
                                              1 COMMON     3     0      3
 ---------------------------------------------------------------------------------
 (1) _atoi                                                10     8      2     682
                                              7 COMMON     2     0      2
                                              0 BANK0      8     8      0
                             ___wmul
                            _isdigit
 ---------------------------------------------------------------------------------
 (2) _isdigit                                              2     2      0      68
                                              1 COMMON     2     2      0
 ---------------------------------------------------------------------------------
 (2) ___wmul                                               6     2      4     244
                                              1 COMMON     6     2      4
 ---------------------------------------------------------------------------------
 (1) _InitApp                                              0     0      0     174
                         _ADC_Config
                         _CCP_Config
                         _DAC_Config
                         _PWM_Config
                        _UART_Config
 ---------------------------------------------------------------------------------
 (2) _UART_Config                                          0     0      0       0
 ---------------------------------------------------------------------------------
 (2) _PWM_Config                                           0     0      0       0
 ---------------------------------------------------------------------------------
 (2) _DAC_Config                                           0     0      0     174
                            _DAC_Set
 ---------------------------------------------------------------------------------
 (3) _DAC_Set                                              2     0      2     174
                                              1 COMMON     2     0      2
 ---------------------------------------------------------------------------------
 (2) _CCP_Config                                           0     0      0       0
 ---------------------------------------------------------------------------------
 (2) _ADC_Config                                           0     0      0       0
 ---------------------------------------------------------------------------------
 (1) _ConfigureOscillator                                  0     0      0       0
 ---------------------------------------------------------------------------------
 Estimated maximum stack depth 3
 ---------------------------------------------------------------------------------
 (Depth) Function   	        Calls       Base Space   Used Autos Params    Refs
 ---------------------------------------------------------------------------------
 (4) _isr                                                  1     1      0       0
                                              0 COMMON     1     1      0
 ---------------------------------------------------------------------------------
 Estimated maximum stack depth 4
 ---------------------------------------------------------------------------------

 Call Graph Graphs:

 _main (ROOT)
   _ConfigureOscillator
   _DAC_Set
   _InitApp
     _ADC_Config
     _CCP_Config
     _DAC_Config
       _DAC_Set
     _PWM_Config
     _UART_Config
   _atoi
     ___wmul
     _isdigit
   _autofocus
     _duty_PWM
   _duty_PWM
   _strcpy

 _isr (ROOT)

 Address spaces:
Name               Size   Autos  Total    Cost      Usage
BIGRAM             3F0      0       0       0        0.0%
NULL                 0      0       0       0        0.0%
CODE                 0      0       0       0        0.0%
BITCOMMON            E      0       0       1        0.0%
BITSFR0              0      0       0       1        0.0%
SFR0                 0      0       0       1        0.0%
COMMON               E      C       D       2       92.9%
BITSFR1              0      0       0       2        0.0%
SFR1                 0      0       0       2        0.0%
BITSFR2              0      0       0       3        0.0%
SFR2                 0      0       0       3        0.0%
STACK                0      0       0       3        0.0%
BITBANK0            50      0       0       4        0.0%
BITSFR3              0      0       0       4        0.0%
SFR3                 0      0       0       4        0.0%
BANK0               50      A      16       5       27.5%
BITSFR4              0      0       0       5        0.0%
SFR4                 0      0       0       5        0.0%
BITBANK1            50      0       0       6        0.0%
BITSFR5              0      0       0       6        0.0%
SFR5                 0      0       0       6        0.0%
BANK1               50      0       0       7        0.0%
BITSFR6              0      0       0       7        0.0%
SFR6                 0      0       0       7        0.0%
BITBANK2            50      0       0       8        0.0%
BITSFR7              0      0       0       8        0.0%
SFR7                 0      0       0       8        0.0%
BANK2               50      0       0       9        0.0%
BITSFR8              0      0       0       9        0.0%
SFR8                 0      0       0       9        0.0%
BITBANK3            50      0       0      10        0.0%
BITSFR9              0      0       0      10        0.0%
SFR9                 0      0       0      10        0.0%
BANK3               50      0       0      11        0.0%
BITSFR10             0      0       0      11        0.0%
SFR10                0      0       0      11        0.0%
BITBANK4            50      0       0      12        0.0%
BITSFR11             0      0       0      12        0.0%
SFR11                0      0       0      12        0.0%
BANK4               50      0       0      13        0.0%
BITSFR12             0      0       0      13        0.0%
SFR12                0      0       0      13        0.0%
BITBANK5            50      0       0      14        0.0%
BITSFR13             0      0       0      14        0.0%
SFR13                0      0       0      14        0.0%
BANK5               50      0       0      15        0.0%
BITSFR14             0      0       0      15        0.0%
SFR14                0      0       0      15        0.0%
BITBANK6            50      0       0      16        0.0%
BITSFR15             0      0       0      16        0.0%
SFR15                0      0       0      16        0.0%
BANK6               50      0       0      17        0.0%
BITSFR16             0      0       0      17        0.0%
SFR16                0      0       0      17        0.0%
BITBANK7            50      0       0      18        0.0%
BITSFR17             0      0       0      18        0.0%
SFR17                0      0       0      18        0.0%
BANK7               50      0       0      19        0.0%
BITSFR18             0      0       0      19        0.0%
SFR18                0      0       0      19        0.0%
BITSFR19             0      0       0      20        0.0%
SFR19                0      0       0      20        0.0%
ABS                  0      0      23      20        0.0%
BITBANK8            50      0       0      21        0.0%
BITSFR20             0      0       0      21        0.0%
SFR20                0      0       0      21        0.0%
BANK8               50      0       0      22        0.0%
BITSFR21             0      0       0      22        0.0%
SFR21                0      0       0      22        0.0%
BITBANK9            50      0       0      23        0.0%
BITSFR22             0      0       0      23        0.0%
SFR22                0      0       0      23        0.0%
BANK9               50      0       0      24        0.0%
BITSFR23             0      0       0      24        0.0%
SFR23                0      0       0      24        0.0%
BITBANK10           50      0       0      25        0.0%
BITSFR24             0      0       0      25        0.0%
SFR24                0      0       0      25        0.0%
BANK10              50      0       0      26        0.0%
BITSFR25             0      0       0      26        0.0%
SFR25                0      0       0      26        0.0%
BITBANK11           50      0       0      27        0.0%
BITSFR26             0      0       0      27        0.0%
SFR26                0      0       0      27        0.0%
BANK11              50      0       0      28        0.0%
BITSFR27             0      0       0      28        0.0%
SFR27                0      0       0      28        0.0%
BITBANK12           30      0       0      29        0.0%
BITSFR28             0      0       0      29        0.0%
SFR28                0      0       0      29        0.0%
BANK12              30      0       0      30        0.0%
BITSFR29             0      0       0      30        0.0%
SFR29                0      0       0      30        0.0%
BITSFR30             0      0       0      31        0.0%
SFR30                0      0       0      31        0.0%
DATA                 0      0      23      31        0.0%
BITSFR31             0      0       0      32        0.0%
SFR31                0      0       0      32        0.0%


Microchip Technology PIC Macro Assembler V2.10 build 88905656 
Symbol Table                                                                                   Mon Sep 16 21:21:59 2019

                           _k 0035                             _n 007C                    _PWM_Config 02B6  
                 __CFG_CP$OFF 0000                            l71 00BE                            l81 015D  
                          l90 02AC                            l67 00BA                            l84 0189  
                          l85 01A3                            l79 015B           ___wmul@multiplicand 0073  
         __size_of_ADC_Config 000B                           l202 01FF                           l205 02B6  
                         l213 0222                           l222 0279                           l216 0298  
                         l225 02B3                           l219 0274                           l228 02A3  
                         l199 01D4                           l296 022D                           l298 0241  
                         l753 014E                           l764 025E                           l758 028B  
                         u300 0205                           u301 0204                           u310 0211  
                         u311 0210                           u320 021D                           u321 021C  
                         u330 0279                           u331 0278                           u340 0229  
                         u341 0228                           u600 00EA                           u601 00E9  
                         u370 023D                           u610 00F6                           u371 023C  
                         u355 022E                           u611 00F5                           u380 0282  
                         u620 0108                           u460 0161                           u700 00C3  
                         u365 0233                           u381 0281                           u621 0107  
                         u461 0160                           u701 00C2                           u390 0288  
                         u630 0138                           u470 0181                           u391 0287  
                         u631 0137                           u471 0180                           u640 013E  
                         u480 019A                           u641 013D                           u481 0199  
                         u490 025E                           u650 005F                           u475 017D  
                         u491 025D                           u651 005E                           u660 007A  
                         u485 0196                           u661 0079                           u717 0051  
                         u590 00E1                           u670 008E                           u591 00E0  
                         u727 016F                           u671 008D                           u680 00A4  
                         u681 00A3                           u690 00B2                           u691 00B1  
             DAC_Set@DACvalue 0071                           _isr 0004                           _ret 0020  
                __CFG_BORV$LO 0000                           wreg 0009               __end_of_DAC_Set 02B4  
         __size_of_DAC_Config 000D                  __CFG_LVP$OFF 0000                  __CFG_ZCD$OFF 0000  
                        l1100 021D                          l1110 01E6                          l1102 01D5  
                        l1120 01F5                          l1112 01E8                          l1104 01DC  
                        l1200 01AB                          l1130 01FC                          l1122 01F6  
                        l1114 01EC                          l1106 01DF                          l1210 01B8  
                        l1202 01AD                          l1124 01F7                          l1116 01EE  
                        l1108 01E2                          l1140 0269                          l1132 025F  
                        l1220 01C3                          l1212 01BA                          l1204 01AF  
                        l1126 01F9                          l1118 01F2                          l1150 028C  
                        l1142 026D                          l1134 0264                          l1230 01CE  
                        l1222 01C4                          l1214 01BC                          l1206 01B3  
                        l1160 029E                          l1128 01FA                          l1152 028E  
                        l1144 026F                          l1136 0265                          l1232 01D1  
                        l1224 01C5                          l1216 01BE                          l1208 01B5  
                        l1400 008E                          l1162 029F                          l1154 0291  
                        l1146 0270                          l1138 0267                          l1226 01C8  
                        l1218 01C0                          l1170 0229                          l1090 0200  
                        l1402 009A                          l1410 00BA                          l1164 02A1  
                        l1156 0299                          l1148 0271                          l1228 01CB  
                        l1172 0232                          l1180 027B                          l1092 0205  
                        l1412 00C3                          l1404 00A4                          l1158 029B  
                        l1086 02AD                          l1174 0237                          l1166 0223  
                        l1182 027C                          l1350 00E1                          l1094 020B  
                        l1414 00C4                          l1406 00A8                          l1192 02A4  
                        l1088 02B2                          l1176 023D                          l1168 0225  
                        l1184 0282                          l1360 0108                          l1352 00EA  
                        l1344 00D3                          l1096 0211                          l1280 019A  
                        l1272 0161                          l1416 00C5                          l1408 00B2  
                        l1194 02A9                          l1186 0288                          l1370 013E  
                        l1362 010D                          l1354 00ED                          l1346 00D4  
                        l1098 0217                          l1274 016A                          l1282 0243  
                        l1418 00CD                          l1196 01A4                          l1188 028A  
                        l1356 00F6                          l1348 00D8                          l1276 0176  
                        l1268 014F                          l1284 0248                          l1380 004B  
                        l1198 01A8                          l1374 014A                          l1366 012D  
                        l1358 00FF                          l1278 0181                          l1286 024C  
                        l1390 0069                          l1382 0058                          l1368 0138  
                        l1288 0250                          l1392 006A                          l1384 0059  
                        l1394 0070                          l1386 005F                          l1378 0045  
                        l1396 007A                          l1388 0060                          l1398 0084  
                        ?_isr 0070                          STR_1 02B5                          _LATA 010C  
                        _LATB 010D                          _LATC 010E                          _T2PR 0494  
                        i1l21 002D                          i1l17 0028                          _WPUA 020C  
                __CFG_WRT$OFF 0000                          _atoi 00D1                          _main 0045  
                        fsr0h 0005                          fsr1h 0007                          indf0 0000  
                        fsr0l 0004                          indf1 0001                          fsr1l 0006  
                        btemp 007E           __size_of_CCP_Config 002B                          start 002F  
               __CFG_IESO$OFF 0000                 __CFG_MCLRE$ON 0000               __end_of_InitApp 01D5  
                       ??_isr 0070                 __CFG_PLLEN$ON 0000                         ?_atoi 0077  
                       ?_main 0070                         _ADRES 048E                         _CCPR1 0291  
                       _CCPR2 0295                         _CCPR7 0299                 __CFG_WDTE$OFF 0000  
                       _T2CON 0495                         _T2HLT 0496                         _T2TMR 0493  
                       _T2RST 0498                         u50_20 000B                         u50_21 000A  
                       u51_20 001E                         u51_21 001D                         u52_20 002C  
                       u52_21 002B                         _TRISA 008C                         _TRISB 008D  
                       _TRISC 008E                         _RXPPS 0E3D           _ConfigureOscillator 02A4  
              __CFG_FCMEN$OFF 0000                         _enter 0022               __end_of_isdigit 028C  
                       atoi@a 0030                         atoi@s 0032                __CFG_BOREN$OFF 0000  
                       status 0003                         wtemp0 007E          ?_ConfigureOscillator 0070  
             __initialization 0031                  __end_of_atoi 014F                  __end_of_main 00D1  
                 ?_PWM_Config 0070                __CFG_LPBOR$OFF 0000                     ??_DAC_Set 0073  
                      ??_atoi 002B                        ??_main 0033                   autofocus@i2 007A  
                      _ADCON0 0490                        _ADCON1 0491                        _ANSELA 018C  
                      _ANSELB 018D                        _ANSELC 018E                        _RC1REG 0199  
                      _RC1PPS 0EA1                        _RB3PPS 0E9B                        _RC1STA 019D  
                      _RA7PPS 0E97                        _RB5PPS 0E9D                        i1l1300 002C  
                      i1l1290 0006                        _RC6PPS 0EA6                        i1l1292 000B  
                      i1l1294 001E                        i1l1296 0021                        i1l1298 0025  
                ??_ADC_Config 0071                        _SP1BRG 019B                        _TX1REG 019A  
                      _TX1STA 019E                  ?_UART_Config 0070                     ??_InitApp 0073  
       ??_ConfigureOscillator 0071                  ??_DAC_Config 0073                __CFG_PWRTE$OFF 0000  
                _CCPTMRS1bits 029E                        ___wmul 0223              __end_of_duty_PWM 0223  
                ??_CCP_Config 0071                        _strcpy 0242            __end_of_ADC_Config 02A4  
                   ??_isdigit 0071            __end_of_DAC_Config 0299           __size_of_PWM_Config 0001  
     __end_of__initialization 0041            __end_of_CCP_Config 0200                __pcstackCOMMON 0070  
                __pidataBANK0 02B4                    __pbssBANK0 0020                  autofocus@ADC 0076  
          __size_of_autofocus 0055                    __pmaintext 0045                       ?___wmul 0071  
             __CFG_PPS1WAY$ON 0000                       _DAC1REF 058F                    __pintentry 0004  
                     _CCP1CON 0293                       _CCP2CON 0297                       _CCP7CON 029B  
                     _DAC_Set 02AD                       ?_strcpy 0071                     _DACLDbits 058D  
                   ?_duty_PWM 0071                       _InitApp 01A4          __size_of_UART_Config 001B  
                ??_PWM_Config 0071               __size_of___wmul 001F               __CFG_STVREN$OFF 0000  
                     __ptext1 0242                       __ptext2 014F                       __ptext3 0200  
                     __ptext4 00D1                       __ptext5 027A                       __ptext6 0223  
                     __ptext7 01A4                       __ptext8 025F                       __ptext9 02B6  
           __end_of_autofocus 01A4               __size_of_strcpy 001D                       _palabra 0023  
                     _isdigit 027A                  __size_of_isr 002B          end_of_initialization 0041  
          __end_of_PWM_Config 02B7                    ??_duty_PWM 0074              __CFG_FOSC$INTOSC 0000  
                   _TRISAbits 008C                     _TRISCbits 008E   __end_of_ConfigureOscillator 02AD  
              __end_of___wmul 0242               autofocus@dutyaf 0078                __end_of_strcpy 025F  
         start_initialization 0031                   __end_of_isr 002F                      ??___wmul 0075  
                 __pdataBANK0 0035                      ?_DAC_Set 0071                      ??_strcpy 0073  
                 __pbssCOMMON 007C                     ___latbits 0002                 __pcstackBANK0 002B  
                    ?_InitApp 0070             __size_of_duty_PWM 0023                      _DAC1CON0 058E  
                    _BAUD1CON 019F                      ?_isdigit 0070                     _autofocus 014F  
                    _T2CLKCON 0497                ___wmul@product 0075                 ??_UART_Config 0071  
                    _PIE1bits 0091                      _PIR1bits 0011                    _ADCON0bits 0490  
           ___wmul@multiplier 0071              __size_of_DAC_Set 0007                    ?_autofocus 0070  
                  _ADC_Config 0299                    _DAC_Config 028C              __size_of_InitApp 0031  
         __end_of_UART_Config 027A                   _isdigit$864 0071                    _CCP_Config 01D5  
            __size_of_isdigit 0012                      __ptext10 028C                      __ptext11 02AD  
                    __ptext12 01D5                      __ptext13 0299                      __ptext14 02A4  
                  strcpy@from 0071                 __size_of_atoi 007E                 __size_of_main 008C  
                    _duty_PWM 0200  __size_of_ConfigureOscillator 0009                    _RC1STAbits 019D  
                    int$flags 007E                      atoi@sign 002F                    _INTCONbits 000B  
                 ??_autofocus 0074                      isdigit@c 0072                      intlevel1 0000  
                 ?_ADC_Config 0070             __CFG_CLKOUTEN$OFF 0000                   _UART_Config 025F  
                 ?_DAC_Config 0070                    _OSCCONbits 009B                 duty_PWM@canal 0073  
               duty_PWM@valor 0071                 __pstringtext1 02B5                 __pstringtext2 0000  
                 ?_CCP_Config 0070                      strcpy@cp 0075                      strcpy@to 0074  
                  _TX1STAbits 019E  
